
niosLab2.elf:     file format elf32-littlenios2
niosLab2.elf
architecture: nios2:r1, flags 0x00000112:
EXEC_P, HAS_SYMS, D_PAGED
start address 0x00020020

Program Header:
    LOAD off    0x00001000 vaddr 0x00020000 paddr 0x00020000 align 2**12
         filesz 0x00000020 memsz 0x00000020 flags r-x
    LOAD off    0x00001020 vaddr 0x00020020 paddr 0x00020020 align 2**12
         filesz 0x0000e938 memsz 0x0000e938 flags r-x
    LOAD off    0x0000f958 vaddr 0x0002e958 paddr 0x0002f4f0 align 2**12
         filesz 0x00000b98 memsz 0x00000b98 flags rw-
    LOAD off    0x00011088 vaddr 0x00030088 paddr 0x00030088 align 2**12
         filesz 0x00000000 memsz 0x00000048 flags rw-

Sections:
Idx Name          Size      VMA       LMA       File off  Algn
  0 .entry        00000020  00020000  00020000  00001000  2**5
                  CONTENTS, ALLOC, LOAD, READONLY, CODE
  1 .exceptions   00000000  00020020  00020020  000104f0  2**0
                  CONTENTS
  2 .text         0000e3b4  00020020  00020020  00001020  2**2
                  CONTENTS, ALLOC, LOAD, READONLY, CODE
  3 .rodata       00000584  0002e3d4  0002e3d4  0000f3d4  2**2
                  CONTENTS, ALLOC, LOAD, READONLY, DATA
  4 .rwdata       00000b98  0002e958  0002f4f0  0000f958  2**2
                  CONTENTS, ALLOC, LOAD, DATA, SMALL_DATA
  5 .bss          00000048  00030088  00030088  00011088  2**2
                  ALLOC, SMALL_DATA
  6 .onchip_memory2_0 00000000  000300d0  000300d0  000104f0  2**0
                  CONTENTS
  7 .comment      0000002c  00000000  00000000  000104f0  2**0
                  CONTENTS, READONLY
  8 .debug_aranges 00000d78  00000000  00000000  00010520  2**3
                  CONTENTS, READONLY, DEBUGGING
  9 .debug_info   00040c67  00000000  00000000  00011298  2**0
                  CONTENTS, READONLY, DEBUGGING
 10 .debug_abbrev 0000cd65  00000000  00000000  00051eff  2**0
                  CONTENTS, READONLY, DEBUGGING
 11 .debug_line   000163bd  00000000  00000000  0005ec64  2**0
                  CONTENTS, READONLY, DEBUGGING
 12 .debug_frame  00001cc8  00000000  00000000  00075024  2**2
                  CONTENTS, READONLY, DEBUGGING
 13 .debug_str    00003659  00000000  00000000  00076cec  2**0
                  CONTENTS, READONLY, DEBUGGING
 14 .debug_loc    0001c2e2  00000000  00000000  0007a345  2**0
                  CONTENTS, READONLY, DEBUGGING
 15 .debug_alt_sim_info 00000040  00000000  00000000  00096628  2**2
                  CONTENTS, READONLY, DEBUGGING
 16 .debug_ranges 00001b58  00000000  00000000  00096668  2**3
                  CONTENTS, READONLY, DEBUGGING
 17 .thread_model 00000003  00000000  00000000  0009ac3a  2**0
                  CONTENTS, READONLY
 18 .cpu          0000000c  00000000  00000000  0009ac3d  2**0
                  CONTENTS, READONLY
 19 .qsys         00000001  00000000  00000000  0009ac49  2**0
                  CONTENTS, READONLY
 20 .simulation_enabled 00000001  00000000  00000000  0009ac4a  2**0
                  CONTENTS, READONLY
 21 .stderr_dev   0000000b  00000000  00000000  0009ac4b  2**0
                  CONTENTS, READONLY
 22 .stdin_dev    0000000b  00000000  00000000  0009ac56  2**0
                  CONTENTS, READONLY
 23 .stdout_dev   0000000b  00000000  00000000  0009ac61  2**0
                  CONTENTS, READONLY
 24 .sopc_system_name 00000008  00000000  00000000  0009ac6c  2**0
                  CONTENTS, READONLY
 25 .quartus_project_dir 0000003a  00000000  00000000  0009ac74  2**0
                  CONTENTS, READONLY
 26 .jdi          00004e8b  00000000  00000000  0009acae  2**0
                  CONTENTS, READONLY
 27 .sopcinfo     0003eb08  00000000  00000000  0009fb39  2**0
                  CONTENTS, READONLY
SYMBOL TABLE:
00020000 l    d  .entry	00000000 .entry
00020020 l    d  .exceptions	00000000 .exceptions
00020020 l    d  .text	00000000 .text
0002e3d4 l    d  .rodata	00000000 .rodata
0002e958 l    d  .rwdata	00000000 .rwdata
00030088 l    d  .bss	00000000 .bss
000300d0 l    d  .onchip_memory2_0	00000000 .onchip_memory2_0
00000000 l    d  .comment	00000000 .comment
00000000 l    d  .debug_aranges	00000000 .debug_aranges
00000000 l    d  .debug_info	00000000 .debug_info
00000000 l    d  .debug_abbrev	00000000 .debug_abbrev
00000000 l    d  .debug_line	00000000 .debug_line
00000000 l    d  .debug_frame	00000000 .debug_frame
00000000 l    d  .debug_str	00000000 .debug_str
00000000 l    d  .debug_loc	00000000 .debug_loc
00000000 l    d  .debug_alt_sim_info	00000000 .debug_alt_sim_info
00000000 l    d  .debug_ranges	00000000 .debug_ranges
00000000 l    df *ABS*	00000000 ../niosLab2_bsp//obj/HAL/src/crt0.o
00020058 l       .text	00000000 alt_after_alt_main
00000000 l    df *ABS*	00000000 hello_world.c
00000000 l    df *ABS*	00000000 lib2-mul.c
00000000 l    df *ABS*	00000000 printf.c
00000000 l    df *ABS*	00000000 vfprintf.c
00022370 l     F .text	000000c0 __sbprintf
0002e42a l     O .rodata	00000010 blanks.5226
0002e41a l     O .rodata	00000010 zeroes.5227
00000000 l    df *ABS*	00000000 wsetup.c
00000000 l    df *ABS*	00000000 dtoa.c
00022590 l     F .text	00000234 quorem
00000000 l    df *ABS*	00000000 fflush.c
00000000 l    df *ABS*	00000000 findfp.c
0002413c l     F .text	00000008 __fp_lock
00024150 l     F .text	00000168 __sinit.part.0
000242b8 l     F .text	00000008 __fp_unlock
00000000 l    df *ABS*	00000000 mallocr.c
00000000 l    df *ABS*	00000000 fwalk.c
00000000 l    df *ABS*	00000000 impure.c
0002e958 l     O .rwdata	00000424 impure_data
00000000 l    df *ABS*	00000000 localeconv.c
00000000 l    df *ABS*	00000000 makebuf.c
00000000 l    df *ABS*	00000000 mallocr.c
00000000 l    df *ABS*	00000000 memchr.c
00000000 l    df *ABS*	00000000 memcpy.c
00000000 l    df *ABS*	00000000 memset.c
00000000 l    df *ABS*	00000000 mprec.c
0002e44c l     O .rodata	0000000c p05.4024
00000000 l    df *ABS*	00000000 sbrkr.c
00000000 l    df *ABS*	00000000 stdio.c
00000000 l    df *ABS*	00000000 strlen.c
00000000 l    df *ABS*	00000000 vfprintf.c
000268a4 l     F .text	000000f4 __sprint_r.part.0
00027d04 l     F .text	000000c0 __sbprintf
0002e580 l     O .rodata	00000010 blanks.5203
0002e570 l     O .rodata	00000010 zeroes.5204
00000000 l    df *ABS*	00000000 writer.c
00000000 l    df *ABS*	00000000 closer.c
00000000 l    df *ABS*	00000000 mallocr.c
00000000 l    df *ABS*	00000000 fclose.c
00000000 l    df *ABS*	00000000 fputwc.c
00000000 l    df *ABS*	00000000 fstatr.c
00000000 l    df *ABS*	00000000 fvwrite.c
00000000 l    df *ABS*	00000000 int_errno.c
00000000 l    df *ABS*	00000000 isattyr.c
00000000 l    df *ABS*	00000000 locale.c
00000000 l    df *ABS*	00000000 lseekr.c
00000000 l    df *ABS*	00000000 mbtowc_r.c
00000000 l    df *ABS*	00000000 memmove.c
00000000 l    df *ABS*	00000000 readr.c
00000000 l    df *ABS*	00000000 mallocr.c
00000000 l    df *ABS*	00000000 strcmp.c
00000000 l    df *ABS*	00000000 wbuf.c
00000000 l    df *ABS*	00000000 wcrtomb.c
00000000 l    df *ABS*	00000000 wctomb_r.c
00000000 l    df *ABS*	00000000 ctype_.c
00000000 l    df *ABS*	00000000 libgcc2.c
00000000 l    df *ABS*	00000000 libgcc2.c
00000000 l    df *ABS*	00000000 lib2-divmod.c
00000000 l    df *ABS*	00000000 adddf3.c
00000000 l    df *ABS*	00000000 divdf3.c
00000000 l    df *ABS*	00000000 eqdf2.c
00000000 l    df *ABS*	00000000 gedf2.c
00000000 l    df *ABS*	00000000 ledf2.c
00000000 l    df *ABS*	00000000 muldf3.c
00000000 l    df *ABS*	00000000 subdf3.c
00000000 l    df *ABS*	00000000 unorddf2.c
00000000 l    df *ABS*	00000000 fixdfsi.c
00000000 l    df *ABS*	00000000 floatsidf.c
00000000 l    df *ABS*	00000000 floatunsidf.c
00000000 l    df *ABS*	00000000 libgcc2.c
00000000 l    df *ABS*	00000000 libgcc2.c
00000000 l    df *ABS*	00000000 alt_close.c
0002cb08 l     F .text	0000003c alt_get_errno
00000000 l    df *ABS*	00000000 alt_dev.c
0002cc20 l     F .text	0000002c alt_dev_null_write
00000000 l    df *ABS*	00000000 alt_errno.c
00000000 l    df *ABS*	00000000 alt_fstat.c
0002cc4c l     F .text	0000003c alt_get_errno
00000000 l    df *ABS*	00000000 alt_isatty.c
0002cd44 l     F .text	0000003c alt_get_errno
00000000 l    df *ABS*	00000000 alt_load.c
0002ce30 l     F .text	00000068 alt_load_section
00000000 l    df *ABS*	00000000 alt_lseek.c
0002cf1c l     F .text	0000003c alt_get_errno
00000000 l    df *ABS*	00000000 alt_main.c
00000000 l    df *ABS*	00000000 alt_malloc_lock.c
00000000 l    df *ABS*	00000000 alt_read.c
0002d0fc l     F .text	0000003c alt_get_errno
00000000 l    df *ABS*	00000000 alt_release_fd.c
00000000 l    df *ABS*	00000000 alt_sbrk.c
0002f4ec l     O .rwdata	00000004 heap_end
00000000 l    df *ABS*	00000000 alt_usleep.c
00000000 l    df *ABS*	00000000 alt_write.c
0002d390 l     F .text	0000003c alt_get_errno
00000000 l    df *ABS*	00000000 alt_sys_init.c
0002d4d0 l     F .text	00000034 alt_dev_reg
0002f498 l     O .rwdata	0000002c jtag_uart_0
00000000 l    df *ABS*	00000000 altera_avalon_jtag_uart_fd.c
00000000 l    df *ABS*	00000000 altera_avalon_jtag_uart_read.c
00000000 l    df *ABS*	00000000 altera_avalon_jtag_uart_write.c
00000000 l    df *ABS*	00000000 alt_busy_sleep.c
00000000 l    df *ABS*	00000000 alt_dcache_flush_all.c
00000000 l    df *ABS*	00000000 alt_dev_llist_insert.c
0002d928 l     F .text	0000003c alt_get_errno
00000000 l    df *ABS*	00000000 alt_do_ctors.c
00000000 l    df *ABS*	00000000 alt_do_dtors.c
00000000 l    df *ABS*	00000000 alt_icache_flush_all.c
00000000 l    df *ABS*	00000000 alt_io_redirect.c
0002dae8 l     F .text	000000d4 alt_open_fd
00000000 l    df *ABS*	00000000 alt_open.c
0002dc38 l     F .text	0000003c alt_get_errno
0002dc74 l     F .text	000000dc alt_file_locked
00000000 l    df *ABS*	00000000 altera_nios2_gen2_irq.c
00000000 l    df *ABS*	00000000 alt_find_dev.c
00000000 l    df *ABS*	00000000 alt_find_file.c
00000000 l    df *ABS*	00000000 alt_get_fd.c
00000000 l    df *ABS*	00000000 atexit.c
00000000 l    df *ABS*	00000000 exit.c
00000000 l    df *ABS*	00000000 memcmp.c
00000000 l    df *ABS*	00000000 __atexit.c
00000000 l    df *ABS*	00000000 __call_atexit.c
00000000 l    df *ABS*	00000000 alt_exit.c
00026520 g     F .text	00000074 _mprec_log10
00026600 g     F .text	00000074 __any_on
00028778 g     F .text	00000058 _isatty_r
0002e458 g     O .rodata	00000028 __mprec_tinytens
0002d038 g     F .text	0000007c alt_main
00028860 g     F .text	00000064 _lseek_r
0002f4f0 g       *ABS*	00000000 __flash_rwdata_start
0002b4d0 g     F .text	00000080 .hidden __eqdf2
000300d0 g       *ABS*	00000000 __alt_heap_start
00020198 g     F .text	00000038 printf
00029304 g     F .text	0000006c _wcrtomb_r
000267a8 g     F .text	0000005c __sseek
00024448 g     F .text	00000010 __sinit
000291a8 g     F .text	00000148 __swbuf_r
000287d0 g     F .text	00000070 _setlocale_r
000242c0 g     F .text	00000078 __sfmoreglue
0002d0d8 g     F .text	00000024 __malloc_unlock
00028914 g     F .text	0000012c memmove
00024434 g     F .text	00000014 _cleanup
000256c0 g     F .text	000000a4 _Balloc
0002b550 g     F .text	000000f0 .hidden __gtdf2
0002deb0 g     F .text	00000024 altera_nios2_gen2_irq_init
00020000 g     F .entry	0000000c __reset
00024a00 g     F .text	00000008 __localeconv_l
00020020 g       *ABS*	00000000 __flash_exceptions_start
00028244 g     F .text	00000060 _fstat_r
00030094 g     O .bss	00000004 errno
00026720 g     F .text	00000008 __seofread
000300a0 g     O .bss	00000004 alt_argv
000374c4 g       *ABS*	00000000 _gp
0002d360 g     F .text	00000030 usleep
0002f318 g     O .rwdata	00000180 alt_fd_list
0002ded4 g     F .text	00000090 alt_find_dev
000254d0 g     F .text	00000100 memcpy
00024144 g     F .text	0000000c _cleanup_r
0002c950 g     F .text	000000c8 .hidden __floatsidf
0002dbbc g     F .text	0000007c alt_io_redirect
0002b640 g     F .text	000000f0 .hidden __ltdf2
0002e3d4 g       *ABS*	00000000 __DTOR_END__
0002647c g     F .text	000000a4 __ratio
00027cec g     F .text	00000018 __vfiprintf_internal
0002d630 g     F .text	000000ec altera_avalon_jtag_uart_read
00020168 g     F .text	00000030 _printf_r
00020000 g       *ABS*	00000000 __alt_mem_onchip_memory2_0
0002a10c g     F .text	00000064 .hidden __udivsi3
0002cd80 g     F .text	000000b0 isatty
0002e4a8 g     O .rodata	000000c8 __mprec_tens
00030090 g     O .bss	00000004 __malloc_top_pad
00024a08 g     F .text	0000000c _localeconv_r
000282a4 g     F .text	000004d4 __sfvwrite_r
00025ae8 g     F .text	00000034 __i2b
00026674 g     F .text	00000058 _sbrk_r
00028a40 g     F .text	00000064 _read_r
0002f4e4 g     O .rwdata	00000004 alt_max_fd
00027f4c g     F .text	000000f8 _fclose_r
00024114 g     F .text	00000028 fflush
0003008c g     O .bss	00000004 __malloc_max_sbrked_mem
0002a1cc g     F .text	000009a0 .hidden __adddf3
00026230 g     F .text	00000104 __b2d
00029a4c g     F .text	000005c8 .hidden __umoddi3
0002cf58 g     F .text	000000e0 lseek
0002f4c4 g     O .rwdata	00000004 _global_impure_ptr
00028aa4 g     F .text	0000062c _realloc_r
000300d0 g       *ABS*	00000000 __bss_end
00029430 g     F .text	0000061c .hidden __udivdi3
000281a4 g     F .text	00000024 _fputwc_r
0002e480 g     O .rodata	00000028 __mprec_bigtens
000258c4 g     F .text	00000110 __s2b
0002ca18 g     F .text	0000009c .hidden __floatunsidf
00025fc0 g     F .text	00000058 __mcmp
00024468 g     F .text	00000014 __fp_lock_all
0002f2f0 g     O .rwdata	00000028 alt_dev_null
0002d908 g     F .text	00000020 alt_dcache_flush_all
000259d4 g     F .text	00000064 __hi0bits
0002c8d0 g     F .text	00000080 .hidden __fixdfsi
0002f4f0 g       *ABS*	00000000 __ram_rwdata_end
0002f4dc g     O .rwdata	00000008 alt_dev_list
0002d3cc g     F .text	00000104 write
0002e958 g       *ABS*	00000000 __ram_rodata_end
0002cc88 g     F .text	000000bc fstat
0002b640 g     F .text	000000f0 .hidden __ledf2
00025d5c g     F .text	00000128 __pow5mult
000269b0 g     F .text	0000133c ___vfiprintf_internal_r
0002a170 g     F .text	0000005c .hidden __umodsi3
000300d0 g       *ABS*	00000000 end
0002e3d4 g       *ABS*	00000000 __CTOR_LIST__
0003c200 g       *ABS*	00000000 __alt_stack_pointer
0002cab4 g     F .text	00000054 .hidden __clzsi2
0002d71c g     F .text	00000094 altera_avalon_jtag_uart_write
00024458 g     F .text	00000004 __sfp_lock_acquire
000253e8 g     F .text	000000e8 memchr
000201d0 g     F .text	00002188 ___vfprintf_internal_r
000245ac g     F .text	000002fc _free_r
0002e6a1 g     O .rodata	00000180 _ctype_b
00028840 g     F .text	0000000c __locale_mb_cur_max
0002e288 g     F .text	00000118 __call_exitprocs
0002f4cc g     O .rwdata	00000004 __malloc_sbrk_base
00020020 g     F .text	0000003c _start
00025e84 g     F .text	0000013c __lshift
0002d138 g     F .text	00000108 read
0002d53c g     F .text	00000034 alt_sys_init
0002e1f8 g     F .text	00000090 __register_exitproc
00025b1c g     F .text	00000240 __multiply
00020140 g     F .text	00000028 .hidden __mulsi3
0002e958 g       *ABS*	00000000 __ram_rwdata_start
0002e3d4 g       *ABS*	00000000 __ram_rodata_start
000300a8 g     O .bss	00000028 __malloc_current_mallinfo
00026334 g     F .text	00000148 __d2b
0002d570 g     F .text	00000060 altera_avalon_jtag_uart_read_fd
0002e06c g     F .text	000000b8 alt_get_fd
0002d7b0 g     F .text	00000158 alt_busy_sleep
00027e28 g     F .text	00000058 _close_r
0002e16c g     F .text	0000008c memcmp
000300d0 g       *ABS*	00000000 __alt_stack_base
00022430 g     F .text	00000160 __swsetup_r
0002ab6c g     F .text	00000964 .hidden __divdf3
00024338 g     F .text	000000fc __sfp
00026594 g     F .text	0000006c __copybits
0002ed7c g     O .rwdata	00000408 __malloc_av_
00024464 g     F .text	00000004 __sinit_lock_release
0002b730 g     F .text	000007e0 .hidden __muldf3
000266cc g     F .text	00000054 __sread
0002df64 g     F .text	00000108 alt_find_file
0002d964 g     F .text	000000a4 alt_dev_llist_insert
0002d0b4 g     F .text	00000024 __malloc_lock
0002d2b0 g     F .text	000000b0 sbrk
000240b4 g     F .text	00000060 _fflush_r
00027e80 g     F .text	000000cc _calloc_r
00030088 g       *ABS*	00000000 __bss_start
000255d0 g     F .text	000000f0 memset
0002005c g     F .text	000000e4 main
000300a4 g     O .bss	00000004 alt_envp
00030088 g     O .bss	00000004 __malloc_max_total_mem
0002d5d0 g     F .text	00000060 altera_avalon_jtag_uart_write_fd
000292f0 g     F .text	00000014 __swbuf
00026804 g     F .text	00000008 __sclose
0003c200 g       *ABS*	00000000 __alt_heap_limit
00028044 g     F .text	00000010 fclose
000227c4 g     F .text	000016c8 _dtoa_r
00024bf4 g     F .text	000007f4 _malloc_r
00029400 g     F .text	00000030 __ascii_wctomb
0002f4e8 g     O .rwdata	00000004 alt_errno
000248a8 g     F .text	000000a4 _fwalk
000288c4 g     F .text	0000000c _mbtowc_r
0002a014 g     F .text	00000080 .hidden __divsi3
00024490 g     F .text	0000011c _malloc_trim_r
0002e3d4 g       *ABS*	00000000 __CTOR_END__
000290d0 g     F .text	000000d8 strcmp
0002e3d4 g       *ABS*	00000000 __flash_rodata_start
0002e3d4 g       *ABS*	00000000 __DTOR_LIST__
0002b4d0 g     F .text	00000080 .hidden __nedf2
0002d504 g     F .text	00000038 alt_irq_init
0002d240 g     F .text	00000070 alt_release_fd
0002e821 g     O .rodata	00000100 .hidden __clz_tab
00030098 g     O .bss	00000004 _PathLocale
0002e124 g     F .text	00000014 atexit
00027dc4 g     F .text	00000064 _write_r
0002884c g     F .text	00000014 setlocale
0002f4c8 g     O .rwdata	00000004 _impure_ptr
0003009c g     O .bss	00000004 alt_argc
00023e8c g     F .text	00000228 __sflush_r
0002da68 g     F .text	00000060 _do_dtors
000288d0 g     F .text	00000044 __ascii_mbtowc
000261d4 g     F .text	0000005c __ulp
0002447c g     F .text	00000014 __fp_unlock_all
0002f4d4 g     O .rwdata	00000008 alt_fs_list
00020020 g       *ABS*	00000000 __ram_exceptions_start
00024a14 g     F .text	0000000c localeconv
00024a20 g     F .text	00000098 __swhatbuf_r
0002f4f0 g       *ABS*	00000000 _edata
000300d0 g       *ABS*	00000000 _end
00028054 g     F .text	00000150 __fputwc
00020020 g       *ABS*	00000000 __ram_exceptions_end
00026728 g     F .text	00000080 __swrite
0002f4d0 g     O .rwdata	00000004 __malloc_trim_threshold
0002e138 g     F .text	00000034 exit
0002494c g     F .text	000000b4 _fwalk_reent
00026018 g     F .text	000001bc __mdiff
0002a094 g     F .text	00000078 .hidden __modsi3
0003c200 g       *ABS*	00000000 __alt_data_end
0002445c g     F .text	00000004 __sfp_lock_release
0002e5a0 g     O .rodata	00000101 _ctype_
0002c87c g     F .text	00000054 .hidden __unorddf2
0002e3a0 g     F .text	00000034 _exit
00024ab8 g     F .text	0000013c __smakebuf_r
0002680c g     F .text	00000098 strlen
0002dd50 g     F .text	00000160 open
0002b550 g     F .text	000000f0 .hidden __gedf2
00026998 g     F .text	00000018 __sprint_r
0002dac8 g     F .text	00000020 alt_icache_flush_all
00022358 g     F .text	00000018 __vfprintf_internal
000293f4 g     F .text	0000000c _wctomb_r
0002bf10 g     F .text	0000096c .hidden __subdf3
00025a38 g     F .text	000000b0 __lo0bits
0002da08 g     F .text	00000060 _do_ctors
00029370 g     F .text	00000084 wcrtomb
0002cb44 g     F .text	000000dc close
0002f184 g     O .rwdata	0000016c __global_locale
0002ce98 g     F .text	00000084 alt_load
000281c8 g     F .text	0000007c fputwc
00024460 g     F .text	00000004 __sinit_lock_acquire
00025788 g     F .text	0000013c __multadd
00025764 g     F .text	00000024 _Bfree



Disassembly of section .entry:

00020000 <__reset>:
 * Jump to the _start entry point in the .text section if reset code
 * is allowed or if optimizing for RTL simulation.
 */
#if defined(ALT_ALLOW_CODE_AT_RESET) || defined(ALT_SIM_OPTIMIZE)
    /* Jump to the _start entry point in the .text section. */
    movhi r1, %hi(_start)
   20000:	004000b4 	movhi	at,2
    ori r1, r1, %lo(_start)
   20004:	08400814 	ori	at,at,32
    jmp r1
   20008:	0800683a 	jmp	at
	...

Disassembly of section .text:

00020020 <_start>:

    /*
     * Now that the caches are initialized, set up the stack pointer and global pointer.
     * The values provided by the linker are assumed to be correctly aligned.
     */
    movhi sp, %hi(__alt_stack_pointer)
   20020:	06c000f4 	movhi	sp,3
    ori sp, sp, %lo(__alt_stack_pointer)
   20024:	def08014 	ori	sp,sp,49664
    movhi gp, %hi(_gp)
   20028:	068000f4 	movhi	gp,3
    ori gp, gp, %lo(_gp)
   2002c:	d69d3114 	ori	gp,gp,29892
 */
#ifndef ALT_SIM_OPTIMIZE
    /* Log that the BSS is about to be cleared. */
    ALT_LOG_PUTS(alt_log_msg_bss)

    movhi r2, %hi(__bss_start)
   20030:	008000f4 	movhi	r2,3
    ori r2, r2, %lo(__bss_start)
   20034:	10802214 	ori	r2,r2,136

    movhi r3, %hi(__bss_end)
   20038:	00c000f4 	movhi	r3,3
    ori r3, r3, %lo(__bss_end)
   2003c:	18c03414 	ori	r3,r3,208

    beq r2, r3, 1f
   20040:	10c00326 	beq	r2,r3,20050 <_start+0x30>

0:
    stw zero, (r2)
   20044:	10000015 	stw	zero,0(r2)
    addi r2, r2, 4
   20048:	10800104 	addi	r2,r2,4
    bltu r2, r3, 0b
   2004c:	10fffd36 	bltu	r2,r3,20044 <_start+0x24>
     * section aren't defined until alt_load() has been called).
     */
    mov   et, zero
#endif

    call alt_load
   20050:	002ce980 	call	2ce98 <alt_load>

    /* Log that alt_main is about to be called. */
    ALT_LOG_PUTS(alt_log_msg_alt_main)

    /* Call the C entry point. It should never return. */
    call alt_main
   20054:	002d0380 	call	2d038 <alt_main>

00020058 <alt_after_alt_main>:

    /* Wait in infinite loop in case alt_main does return. */
alt_after_alt_main:
    br alt_after_alt_main
   20058:	003fff06 	br	20058 <alt_after_alt_main>

0002005c <main>:
#include <stdio.h>
#include "system.h"
#include <alt_types.h>
#include <io.h> /* Leiutura e escrita no Avalon */

int main(void){
   2005c:	defff904 	addi	sp,sp,-28
   20060:	dfc00615 	stw	ra,24(sp)
   20064:	df000515 	stw	fp,20(sp)
   20068:	df000504 	addi	fp,sp,20
  unsigned int counter = 0;
   2006c:	e03fff15 	stw	zero,-4(fp)
  unsigned int mask = 0;
   20070:	e03ffe15 	stw	zero,-8(fp)
  unsigned int sw_value;
  unsigned int dir = 0;
   20074:	e03ffd15 	stw	zero,-12(fp)
  unsigned int vel;

  while(1){
	  sw_value = IORD_32DIRECT(PIO_1_BASE, 0);
   20078:	00800134 	movhi	r2,4
   2007c:	10840437 	ldwio	r2,4112(r2)
   20080:	e0bffc15 	stw	r2,-16(fp)
	  dir = (int) (0x08 & sw_value);
   20084:	e0bffc17 	ldw	r2,-16(fp)
   20088:	1080020c 	andi	r2,r2,8
   2008c:	e0bffd15 	stw	r2,-12(fp)
	  vel = (int) (0x07 & sw_value);
   20090:	e0bffc17 	ldw	r2,-16(fp)
   20094:	108001cc 	andi	r2,r2,7
   20098:	e0bffb15 	stw	r2,-20(fp)

      if (counter <= 3 && sw_value > 0){
   2009c:	e0bfff17 	ldw	r2,-4(fp)
   200a0:	10800128 	cmpgeui	r2,r2,4
   200a4:	1000241e 	bne	r2,zero,20138 <main+0xdc>
   200a8:	e0bffc17 	ldw	r2,-16(fp)
   200ac:	10002226 	beq	r2,zero,20138 <main+0xdc>
    	  if (dir > 0) {
   200b0:	e0bffd17 	ldw	r2,-12(fp)
   200b4:	10000726 	beq	r2,zero,200d4 <main+0x78>
    		  mask = 0x08 >> counter++; // 0x20 for leds
   200b8:	e0bfff17 	ldw	r2,-4(fp)
   200bc:	10c00044 	addi	r3,r2,1
   200c0:	e0ffff15 	stw	r3,-4(fp)
   200c4:	00c00204 	movi	r3,8
   200c8:	1885d83a 	sra	r2,r3,r2
   200cc:	e0bffe15 	stw	r2,-8(fp)
   200d0:	00000606 	br	200ec <main+0x90>
    	  } else {
        	  mask = 0x01 << counter++;
   200d4:	e0bfff17 	ldw	r2,-4(fp)
   200d8:	10c00044 	addi	r3,r2,1
   200dc:	e0ffff15 	stw	r3,-4(fp)
   200e0:	00c00044 	movi	r3,1
   200e4:	1884983a 	sll	r2,r3,r2
   200e8:	e0bffe15 	stw	r2,-8(fp)
    	  }
    	  printf("%d", mask);
   200ec:	e17ffe17 	ldw	r5,-8(fp)
   200f0:	010000f4 	movhi	r4,3
   200f4:	2138f504 	addi	r4,r4,-7212
   200f8:	00201980 	call	20198 <printf>
    	  IOWR_32DIRECT(PIO_0_BASE, 0, mask);
   200fc:	e0fffe17 	ldw	r3,-8(fp)
   20100:	00800134 	movhi	r2,4
   20104:	10c40835 	stwio	r3,4128(r2)
    	  IOWR_32DIRECT(PIO_2_BASE, 0, mask);
   20108:	e0fffe17 	ldw	r3,-8(fp)
   2010c:	00800134 	movhi	r2,4
   20110:	10c40035 	stwio	r3,4096(r2)
          usleep(16000 - vel * 2000);
   20114:	0141f404 	movi	r5,2000
   20118:	e13ffb17 	ldw	r4,-20(fp)
   2011c:	00201400 	call	20140 <__mulsi3>
   20120:	1007883a 	mov	r3,r2
   20124:	008fa004 	movi	r2,16000
   20128:	10c5c83a 	sub	r2,r2,r3
   2012c:	1009883a 	mov	r4,r2
   20130:	002d3600 	call	2d360 <usleep>
      if (counter <= 3 && sw_value > 0){
   20134:	00000106 	br	2013c <main+0xe0>
      }
      else{
    	  counter = 0;
   20138:	e03fff15 	stw	zero,-4(fp)
	  sw_value = IORD_32DIRECT(PIO_1_BASE, 0);
   2013c:	003fce06 	br	20078 <main+0x1c>

00020140 <__mulsi3>:
   20140:	0005883a 	mov	r2,zero
   20144:	20000726 	beq	r4,zero,20164 <__mulsi3+0x24>
   20148:	20c0004c 	andi	r3,r4,1
   2014c:	2008d07a 	srli	r4,r4,1
   20150:	18000126 	beq	r3,zero,20158 <__mulsi3+0x18>
   20154:	1145883a 	add	r2,r2,r5
   20158:	294b883a 	add	r5,r5,r5
   2015c:	203ffa1e 	bne	r4,zero,20148 <__mulsi3+0x8>
   20160:	f800283a 	ret
   20164:	f800283a 	ret

00020168 <_printf_r>:
   20168:	defffd04 	addi	sp,sp,-12
   2016c:	2805883a 	mov	r2,r5
   20170:	dfc00015 	stw	ra,0(sp)
   20174:	d9800115 	stw	r6,4(sp)
   20178:	d9c00215 	stw	r7,8(sp)
   2017c:	21400217 	ldw	r5,8(r4)
   20180:	d9c00104 	addi	r7,sp,4
   20184:	100d883a 	mov	r6,r2
   20188:	00201d00 	call	201d0 <___vfprintf_internal_r>
   2018c:	dfc00017 	ldw	ra,0(sp)
   20190:	dec00304 	addi	sp,sp,12
   20194:	f800283a 	ret

00020198 <printf>:
   20198:	defffc04 	addi	sp,sp,-16
   2019c:	dfc00015 	stw	ra,0(sp)
   201a0:	d9400115 	stw	r5,4(sp)
   201a4:	d9800215 	stw	r6,8(sp)
   201a8:	d9c00315 	stw	r7,12(sp)
   201ac:	008000f4 	movhi	r2,3
   201b0:	10bd3217 	ldw	r2,-2872(r2)
   201b4:	200b883a 	mov	r5,r4
   201b8:	d9800104 	addi	r6,sp,4
   201bc:	11000217 	ldw	r4,8(r2)
   201c0:	00223580 	call	22358 <__vfprintf_internal>
   201c4:	dfc00017 	ldw	ra,0(sp)
   201c8:	dec00404 	addi	sp,sp,16
   201cc:	f800283a 	ret

000201d0 <___vfprintf_internal_r>:
   201d0:	deffbd04 	addi	sp,sp,-268
   201d4:	dfc04215 	stw	ra,264(sp)
   201d8:	dd003d15 	stw	r20,244(sp)
   201dc:	dcc03c15 	stw	r19,240(sp)
   201e0:	dc003915 	stw	r16,228(sp)
   201e4:	d9000515 	stw	r4,20(sp)
   201e8:	2021883a 	mov	r16,r4
   201ec:	2827883a 	mov	r19,r5
   201f0:	3029883a 	mov	r20,r6
   201f4:	d9c00615 	stw	r7,24(sp)
   201f8:	df004115 	stw	fp,260(sp)
   201fc:	ddc04015 	stw	r23,256(sp)
   20200:	dd803f15 	stw	r22,252(sp)
   20204:	dd403e15 	stw	r21,248(sp)
   20208:	dc803b15 	stw	r18,236(sp)
   2020c:	dc403a15 	stw	r17,232(sp)
   20210:	0024a080 	call	24a08 <_localeconv_r>
   20214:	10800017 	ldw	r2,0(r2)
   20218:	1009883a 	mov	r4,r2
   2021c:	d8800d15 	stw	r2,52(sp)
   20220:	002680c0 	call	2680c <strlen>
   20224:	d8800b15 	stw	r2,44(sp)
   20228:	80000226 	beq	r16,zero,20234 <___vfprintf_internal_r+0x64>
   2022c:	80800e17 	ldw	r2,56(r16)
   20230:	1002de26 	beq	r2,zero,20dac <___vfprintf_internal_r+0xbdc>
   20234:	9880030b 	ldhu	r2,12(r19)
   20238:	10c8000c 	andi	r3,r2,8192
   2023c:	1800061e 	bne	r3,zero,20258 <___vfprintf_internal_r+0x88>
   20240:	98c01917 	ldw	r3,100(r19)
   20244:	0137ffc4 	movi	r4,-8193
   20248:	10880014 	ori	r2,r2,8192
   2024c:	1906703a 	and	r3,r3,r4
   20250:	9880030d 	sth	r2,12(r19)
   20254:	98c01915 	stw	r3,100(r19)
   20258:	10c0020c 	andi	r3,r2,8
   2025c:	18009a26 	beq	r3,zero,204c8 <___vfprintf_internal_r+0x2f8>
   20260:	98c00417 	ldw	r3,16(r19)
   20264:	18009826 	beq	r3,zero,204c8 <___vfprintf_internal_r+0x2f8>
   20268:	1080068c 	andi	r2,r2,26
   2026c:	10800298 	cmpnei	r2,r2,10
   20270:	10009d26 	beq	r2,zero,204e8 <___vfprintf_internal_r+0x318>
   20274:	ddc02904 	addi	r23,sp,164
   20278:	ddc01c15 	stw	r23,112(sp)
   2027c:	d8001e15 	stw	zero,120(sp)
   20280:	d8001d15 	stw	zero,116(sp)
   20284:	d8000815 	stw	zero,32(sp)
   20288:	d8000915 	stw	zero,36(sp)
   2028c:	d8000a15 	stw	zero,40(sp)
   20290:	b811883a 	mov	r8,r23
   20294:	d8000c15 	stw	zero,48(sp)
   20298:	d8001115 	stw	zero,68(sp)
   2029c:	d8000415 	stw	zero,16(sp)
   202a0:	a02d883a 	mov	r22,r20
   202a4:	b0800007 	ldb	r2,0(r22)
   202a8:	1000a226 	beq	r2,zero,20534 <___vfprintf_internal_r+0x364>
   202ac:	10800960 	cmpeqi	r2,r2,37
   202b0:	1005351e 	bne	r2,zero,21788 <___vfprintf_internal_r+0x15b8>
   202b4:	b021883a 	mov	r16,r22
   202b8:	00000206 	br	202c4 <___vfprintf_internal_r+0xf4>
   202bc:	18009326 	beq	r3,zero,2050c <___vfprintf_internal_r+0x33c>
   202c0:	8821883a 	mov	r16,r17
   202c4:	80800047 	ldb	r2,1(r16)
   202c8:	84400044 	addi	r17,r16,1
   202cc:	10c00958 	cmpnei	r3,r2,37
   202d0:	103ffa1e 	bne	r2,zero,202bc <___vfprintf_internal_r+0xec>
   202d4:	8da5c83a 	sub	r18,r17,r22
   202d8:	90009626 	beq	r18,zero,20534 <___vfprintf_internal_r+0x364>
   202dc:	d8c01e17 	ldw	r3,120(sp)
   202e0:	d8801d17 	ldw	r2,116(sp)
   202e4:	45800015 	stw	r22,0(r8)
   202e8:	1c87883a 	add	r3,r3,r18
   202ec:	10800044 	addi	r2,r2,1
   202f0:	d8801d15 	stw	r2,116(sp)
   202f4:	44800115 	stw	r18,4(r8)
   202f8:	d8c01e15 	stw	r3,120(sp)
   202fc:	10800208 	cmpgei	r2,r2,8
   20300:	1000851e 	bne	r2,zero,20518 <___vfprintf_internal_r+0x348>
   20304:	42000204 	addi	r8,r8,8
   20308:	d8c00417 	ldw	r3,16(sp)
   2030c:	80800047 	ldb	r2,1(r16)
   20310:	1c87883a 	add	r3,r3,r18
   20314:	d8c00415 	stw	r3,16(sp)
   20318:	10008626 	beq	r2,zero,20534 <___vfprintf_internal_r+0x364>
   2031c:	8a800047 	ldb	r10,1(r17)
   20320:	8d800044 	addi	r22,r17,1
   20324:	d8001545 	stb	zero,85(sp)
   20328:	0009883a 	mov	r4,zero
   2032c:	000b883a 	mov	r5,zero
   20330:	02ffffc4 	movi	r11,-1
   20334:	0021883a 	mov	r16,zero
   20338:	0019883a 	mov	r12,zero
   2033c:	b5800044 	addi	r22,r22,1
   20340:	5039883a 	mov	fp,r10
   20344:	e0bff804 	addi	r2,fp,-32
   20348:	10c01668 	cmpgeui	r3,r2,89
   2034c:	18009d1e 	bne	r3,zero,205c4 <___vfprintf_internal_r+0x3f4>
   20350:	100490ba 	slli	r2,r2,2
   20354:	00c000b4 	movhi	r3,2
   20358:	10c7883a 	add	r3,r2,r3
   2035c:	1880d917 	ldw	r2,868(r3)
   20360:	1000683a 	jmp	r2
   20364:	0002069c 	xori	zero,zero,2074
   20368:	000205c4 	movi	zero,2071
   2036c:	000205c4 	movi	zero,2071
   20370:	00020690 	cmplti	zero,zero,2074
   20374:	000205c4 	movi	zero,2071
   20378:	000205c4 	movi	zero,2071
   2037c:	000205c4 	movi	zero,2071
   20380:	000205c4 	movi	zero,2071
   20384:	000205c4 	movi	zero,2071
   20388:	000205c4 	movi	zero,2071
   2038c:	00020668 	cmpgeui	zero,zero,2073
   20390:	00020658 	cmpnei	zero,zero,2073
   20394:	000205c4 	movi	zero,2071
   20398:	00020640 	call	2064 <__alt_mem_onchip_memory2_0-0x1df9c>
   2039c:	000205f4 	movhi	zero,2071
   203a0:	000205c4 	movi	zero,2071
   203a4:	000205e8 	cmpgeui	zero,zero,2071
   203a8:	0002058c 	andi	zero,zero,2070
   203ac:	0002058c 	andi	zero,zero,2070
   203b0:	0002058c 	andi	zero,zero,2070
   203b4:	0002058c 	andi	zero,zero,2070
   203b8:	0002058c 	andi	zero,zero,2070
   203bc:	0002058c 	andi	zero,zero,2070
   203c0:	0002058c 	andi	zero,zero,2070
   203c4:	0002058c 	andi	zero,zero,2070
   203c8:	0002058c 	andi	zero,zero,2070
   203cc:	000205c4 	movi	zero,2071
   203d0:	000205c4 	movi	zero,2071
   203d4:	000205c4 	movi	zero,2071
   203d8:	000205c4 	movi	zero,2071
   203dc:	000205c4 	movi	zero,2071
   203e0:	000205c4 	movi	zero,2071
   203e4:	000205c4 	movi	zero,2071
   203e8:	000205c4 	movi	zero,2071
   203ec:	000205c4 	movi	zero,2071
   203f0:	000205c4 	movi	zero,2071
   203f4:	00020bb0 	cmpltui	zero,zero,2094
   203f8:	00020ad0 	cmplti	zero,zero,2091
   203fc:	000205c4 	movi	zero,2071
   20400:	00020ad0 	cmplti	zero,zero,2091
   20404:	000205c4 	movi	zero,2071
   20408:	000205c4 	movi	zero,2071
   2040c:	000205c4 	movi	zero,2071
   20410:	000205c4 	movi	zero,2071
   20414:	00020ac4 	movi	zero,2091
   20418:	000205c4 	movi	zero,2071
   2041c:	000205c4 	movi	zero,2071
   20420:	00020a90 	cmplti	zero,zero,2090
   20424:	000205c4 	movi	zero,2071
   20428:	000205c4 	movi	zero,2071
   2042c:	000205c4 	movi	zero,2071
   20430:	000205c4 	movi	zero,2071
   20434:	000205c4 	movi	zero,2071
   20438:	00020cd0 	cmplti	zero,zero,2099
   2043c:	000205c4 	movi	zero,2071
   20440:	000205c4 	movi	zero,2071
   20444:	00020c88 	cmpgei	zero,zero,2098
   20448:	000205c4 	movi	zero,2071
   2044c:	000205c4 	movi	zero,2071
   20450:	000205c4 	movi	zero,2071
   20454:	000205c4 	movi	zero,2071
   20458:	000205c4 	movi	zero,2071
   2045c:	000205c4 	movi	zero,2071
   20460:	000205c4 	movi	zero,2071
   20464:	000205c4 	movi	zero,2071
   20468:	000205c4 	movi	zero,2071
   2046c:	000205c4 	movi	zero,2071
   20470:	00020820 	cmpeqi	zero,zero,2080
   20474:	000207ac 	andhi	zero,zero,2078
   20478:	00020ad0 	cmplti	zero,zero,2091
   2047c:	00020ad0 	cmplti	zero,zero,2091
   20480:	00020ad0 	cmplti	zero,zero,2091
   20484:	00020da0 	cmpeqi	zero,zero,2102
   20488:	000207ac 	andhi	zero,zero,2078
   2048c:	000205c4 	movi	zero,2071
   20490:	000205c4 	movi	zero,2071
   20494:	00020d8c 	andi	zero,zero,2102
   20498:	000205c4 	movi	zero,2071
   2049c:	00020a50 	cmplti	zero,zero,2089
   204a0:	00020a10 	cmplti	zero,zero,2088
   204a4:	00020d10 	cmplti	zero,zero,2100
   204a8:	00020d04 	movi	zero,2100
   204ac:	000205c4 	movi	zero,2071
   204b0:	00020750 	cmplti	zero,zero,2077
   204b4:	000205c4 	movi	zero,2071
   204b8:	00020710 	cmplti	zero,zero,2076
   204bc:	000205c4 	movi	zero,2071
   204c0:	000205c4 	movi	zero,2071
   204c4:	000206c8 	cmpgei	zero,zero,2075
   204c8:	d9000517 	ldw	r4,20(sp)
   204cc:	980b883a 	mov	r5,r19
   204d0:	00224300 	call	22430 <__swsetup_r>
   204d4:	1007561e 	bne	r2,zero,22230 <___vfprintf_internal_r+0x2060>
   204d8:	9880030b 	ldhu	r2,12(r19)
   204dc:	1080068c 	andi	r2,r2,26
   204e0:	10800298 	cmpnei	r2,r2,10
   204e4:	103f631e 	bne	r2,zero,20274 <___vfprintf_internal_r+0xa4>
   204e8:	9880038f 	ldh	r2,14(r19)
   204ec:	103f6116 	blt	r2,zero,20274 <___vfprintf_internal_r+0xa4>
   204f0:	d9c00617 	ldw	r7,24(sp)
   204f4:	d9000517 	ldw	r4,20(sp)
   204f8:	a00d883a 	mov	r6,r20
   204fc:	980b883a 	mov	r5,r19
   20500:	00223700 	call	22370 <__sbprintf>
   20504:	d8800415 	stw	r2,16(sp)
   20508:	00001306 	br	20558 <___vfprintf_internal_r+0x388>
   2050c:	8da5c83a 	sub	r18,r17,r22
   20510:	903f8226 	beq	r18,zero,2031c <___vfprintf_internal_r+0x14c>
   20514:	003f7106 	br	202dc <___vfprintf_internal_r+0x10c>
   20518:	d9000517 	ldw	r4,20(sp)
   2051c:	d9801c04 	addi	r6,sp,112
   20520:	980b883a 	mov	r5,r19
   20524:	00269980 	call	26998 <__sprint_r>
   20528:	1000081e 	bne	r2,zero,2054c <___vfprintf_internal_r+0x37c>
   2052c:	b811883a 	mov	r8,r23
   20530:	003f7506 	br	20308 <___vfprintf_internal_r+0x138>
   20534:	d8801e17 	ldw	r2,120(sp)
   20538:	10000426 	beq	r2,zero,2054c <___vfprintf_internal_r+0x37c>
   2053c:	d9000517 	ldw	r4,20(sp)
   20540:	d9801c04 	addi	r6,sp,112
   20544:	980b883a 	mov	r5,r19
   20548:	00269980 	call	26998 <__sprint_r>
   2054c:	9880030b 	ldhu	r2,12(r19)
   20550:	1080100c 	andi	r2,r2,64
   20554:	1007361e 	bne	r2,zero,22230 <___vfprintf_internal_r+0x2060>
   20558:	d8800417 	ldw	r2,16(sp)
   2055c:	dfc04217 	ldw	ra,264(sp)
   20560:	df004117 	ldw	fp,260(sp)
   20564:	ddc04017 	ldw	r23,256(sp)
   20568:	dd803f17 	ldw	r22,252(sp)
   2056c:	dd403e17 	ldw	r21,248(sp)
   20570:	dd003d17 	ldw	r20,244(sp)
   20574:	dcc03c17 	ldw	r19,240(sp)
   20578:	dc803b17 	ldw	r18,236(sp)
   2057c:	dc403a17 	ldw	r17,232(sp)
   20580:	dc003917 	ldw	r16,228(sp)
   20584:	dec04304 	addi	sp,sp,268
   20588:	f800283a 	ret
   2058c:	0021883a 	mov	r16,zero
   20590:	e0fff404 	addi	r3,fp,-48
   20594:	800490ba 	slli	r2,r16,2
   20598:	b5800044 	addi	r22,r22,1
   2059c:	b73fffc7 	ldb	fp,-1(r22)
   205a0:	1421883a 	add	r16,r2,r16
   205a4:	8421883a 	add	r16,r16,r16
   205a8:	1c21883a 	add	r16,r3,r16
   205ac:	e0fff404 	addi	r3,fp,-48
   205b0:	188002b0 	cmpltui	r2,r3,10
   205b4:	103ff71e 	bne	r2,zero,20594 <___vfprintf_internal_r+0x3c4>
   205b8:	e0bff804 	addi	r2,fp,-32
   205bc:	10c01668 	cmpgeui	r3,r2,89
   205c0:	183f6326 	beq	r3,zero,20350 <___vfprintf_internal_r+0x180>
   205c4:	21003fcc 	andi	r4,r4,255
   205c8:	2006741e 	bne	r4,zero,21f9c <___vfprintf_internal_r+0x1dcc>
   205cc:	e03fd926 	beq	fp,zero,20534 <___vfprintf_internal_r+0x364>
   205d0:	df001f05 	stb	fp,124(sp)
   205d4:	d8001545 	stb	zero,85(sp)
   205d8:	05400044 	movi	r21,1
   205dc:	05000044 	movi	r20,1
   205e0:	dc401f04 	addi	r17,sp,124
   205e4:	00009706 	br	20844 <___vfprintf_internal_r+0x674>
   205e8:	63002014 	ori	r12,r12,128
   205ec:	b2800007 	ldb	r10,0(r22)
   205f0:	003f5206 	br	2033c <___vfprintf_internal_r+0x16c>
   205f4:	b7000007 	ldb	fp,0(r22)
   205f8:	b0800044 	addi	r2,r22,1
   205fc:	e0c00aa0 	cmpeqi	r3,fp,42
   20600:	1807491e 	bne	r3,zero,22328 <___vfprintf_internal_r+0x2158>
   20604:	e0fff404 	addi	r3,fp,-48
   20608:	198002b0 	cmpltui	r6,r3,10
   2060c:	102d883a 	mov	r22,r2
   20610:	0017883a 	mov	r11,zero
   20614:	303f4b26 	beq	r6,zero,20344 <___vfprintf_internal_r+0x174>
   20618:	580490ba 	slli	r2,r11,2
   2061c:	b5800044 	addi	r22,r22,1
   20620:	b73fffc7 	ldb	fp,-1(r22)
   20624:	12d7883a 	add	r11,r2,r11
   20628:	5ad7883a 	add	r11,r11,r11
   2062c:	58d7883a 	add	r11,r11,r3
   20630:	e0fff404 	addi	r3,fp,-48
   20634:	188002b0 	cmpltui	r2,r3,10
   20638:	103ff71e 	bne	r2,zero,20618 <___vfprintf_internal_r+0x448>
   2063c:	003f4106 	br	20344 <___vfprintf_internal_r+0x174>
   20640:	b7000003 	ldbu	fp,0(r22)
   20644:	e2803fcc 	andi	r10,fp,255
   20648:	5280201c 	xori	r10,r10,128
   2064c:	63000114 	ori	r12,r12,4
   20650:	52bfe004 	addi	r10,r10,-128
   20654:	003f3906 	br	2033c <___vfprintf_internal_r+0x16c>
   20658:	01000044 	movi	r4,1
   2065c:	01400ac4 	movi	r5,43
   20660:	b2800007 	ldb	r10,0(r22)
   20664:	003f3506 	br	2033c <___vfprintf_internal_r+0x16c>
   20668:	d8800617 	ldw	r2,24(sp)
   2066c:	b7000003 	ldbu	fp,0(r22)
   20670:	14000017 	ldw	r16,0(r2)
   20674:	10800104 	addi	r2,r2,4
   20678:	8004da16 	blt	r16,zero,219e4 <___vfprintf_internal_r+0x1814>
   2067c:	d8800615 	stw	r2,24(sp)
   20680:	e2803fcc 	andi	r10,fp,255
   20684:	5280201c 	xori	r10,r10,128
   20688:	52bfe004 	addi	r10,r10,-128
   2068c:	003f2b06 	br	2033c <___vfprintf_internal_r+0x16c>
   20690:	63000054 	ori	r12,r12,1
   20694:	b2800007 	ldb	r10,0(r22)
   20698:	003f2806 	br	2033c <___vfprintf_internal_r+0x16c>
   2069c:	28803fcc 	andi	r2,r5,255
   206a0:	1080201c 	xori	r2,r2,128
   206a4:	10bfe004 	addi	r2,r2,-128
   206a8:	b7000003 	ldbu	fp,0(r22)
   206ac:	103ff41e 	bne	r2,zero,20680 <___vfprintf_internal_r+0x4b0>
   206b0:	e2803fcc 	andi	r10,fp,255
   206b4:	5280201c 	xori	r10,r10,128
   206b8:	01000044 	movi	r4,1
   206bc:	01400804 	movi	r5,32
   206c0:	52bfe004 	addi	r10,r10,-128
   206c4:	003f1d06 	br	2033c <___vfprintf_internal_r+0x16c>
   206c8:	21003fcc 	andi	r4,r4,255
   206cc:	2006b81e 	bne	r4,zero,221b0 <___vfprintf_internal_r+0x1fe0>
   206d0:	008000f4 	movhi	r2,3
   206d4:	10b8ff04 	addi	r2,r2,-7172
   206d8:	d8800c15 	stw	r2,48(sp)
   206dc:	6080080c 	andi	r2,r12,32
   206e0:	10017026 	beq	r2,zero,20ca4 <___vfprintf_internal_r+0xad4>
   206e4:	d8800617 	ldw	r2,24(sp)
   206e8:	15400017 	ldw	r21,0(r2)
   206ec:	15000117 	ldw	r20,4(r2)
   206f0:	10800204 	addi	r2,r2,8
   206f4:	d8800615 	stw	r2,24(sp)
   206f8:	6080004c 	andi	r2,r12,1
   206fc:	10000226 	beq	r2,zero,20708 <___vfprintf_internal_r+0x538>
   20700:	ad04b03a 	or	r2,r21,r20
   20704:	1004aa1e 	bne	r2,zero,219b0 <___vfprintf_internal_r+0x17e0>
   20708:	00800084 	movi	r2,2
   2070c:	00018f06 	br	20d4c <___vfprintf_internal_r+0xb7c>
   20710:	21003fcc 	andi	r4,r4,255
   20714:	2006a41e 	bne	r4,zero,221a8 <___vfprintf_internal_r+0x1fd8>
   20718:	6080080c 	andi	r2,r12,32
   2071c:	1001b41e 	bne	r2,zero,20df0 <___vfprintf_internal_r+0xc20>
   20720:	d8800617 	ldw	r2,24(sp)
   20724:	60c0040c 	andi	r3,r12,16
   20728:	15400017 	ldw	r21,0(r2)
   2072c:	10800104 	addi	r2,r2,4
   20730:	18016e1e 	bne	r3,zero,20cec <___vfprintf_internal_r+0xb1c>
   20734:	60c0100c 	andi	r3,r12,64
   20738:	1805a526 	beq	r3,zero,21dd0 <___vfprintf_internal_r+0x1c00>
   2073c:	d8800615 	stw	r2,24(sp)
   20740:	ad7fffcc 	andi	r21,r21,65535
   20744:	0029883a 	mov	r20,zero
   20748:	00800044 	movi	r2,1
   2074c:	00017f06 	br	20d4c <___vfprintf_internal_r+0xb7c>
   20750:	d8800617 	ldw	r2,24(sp)
   20754:	d8001545 	stb	zero,85(sp)
   20758:	14400017 	ldw	r17,0(r2)
   2075c:	14800104 	addi	r18,r2,4
   20760:	8804ca26 	beq	r17,zero,21a8c <___vfprintf_internal_r+0x18bc>
   20764:	da000e15 	stw	r8,56(sp)
   20768:	db000715 	stw	r12,28(sp)
   2076c:	58bfffe0 	cmpeqi	r2,r11,-1
   20770:	10056c1e 	bne	r2,zero,21d24 <___vfprintf_internal_r+0x1b54>
   20774:	580d883a 	mov	r6,r11
   20778:	000b883a 	mov	r5,zero
   2077c:	8809883a 	mov	r4,r17
   20780:	dac00615 	stw	r11,24(sp)
   20784:	00253e80 	call	253e8 <memchr>
   20788:	dac00617 	ldw	r11,24(sp)
   2078c:	db000717 	ldw	r12,28(sp)
   20790:	da000e17 	ldw	r8,56(sp)
   20794:	10066c26 	beq	r2,zero,22148 <___vfprintf_internal_r+0x1f78>
   20798:	1469c83a 	sub	r20,r2,r17
   2079c:	a02b883a 	mov	r21,r20
   207a0:	a005fc16 	blt	r20,zero,21f94 <___vfprintf_internal_r+0x1dc4>
   207a4:	dc800615 	stw	r18,24(sp)
   207a8:	00002606 	br	20844 <___vfprintf_internal_r+0x674>
   207ac:	21003fcc 	andi	r4,r4,255
   207b0:	20067b1e 	bne	r4,zero,221a0 <___vfprintf_internal_r+0x1fd0>
   207b4:	6080080c 	andi	r2,r12,32
   207b8:	10017f1e 	bne	r2,zero,20db8 <___vfprintf_internal_r+0xbe8>
   207bc:	d8800617 	ldw	r2,24(sp)
   207c0:	60c0040c 	andi	r3,r12,16
   207c4:	10800104 	addi	r2,r2,4
   207c8:	1801001e 	bne	r3,zero,20bcc <___vfprintf_internal_r+0x9fc>
   207cc:	60c0100c 	andi	r3,r12,64
   207d0:	1800fe26 	beq	r3,zero,20bcc <___vfprintf_internal_r+0x9fc>
   207d4:	d8c00617 	ldw	r3,24(sp)
   207d8:	d8800615 	stw	r2,24(sp)
   207dc:	1d40000f 	ldh	r21,0(r3)
   207e0:	a829d7fa 	srai	r20,r21,31
   207e4:	a005883a 	mov	r2,r20
   207e8:	1000fe16 	blt	r2,zero,20be4 <___vfprintf_internal_r+0xa14>
   207ec:	58bfffd8 	cmpnei	r2,r11,-1
   207f0:	db401543 	ldbu	r13,85(sp)
   207f4:	10018526 	beq	r2,zero,20e0c <___vfprintf_internal_r+0xc3c>
   207f8:	00ffdfc4 	movi	r3,-129
   207fc:	ad04b03a 	or	r2,r21,r20
   20800:	60d8703a 	and	r12,r12,r3
   20804:	1001811e 	bne	r2,zero,20e0c <___vfprintf_internal_r+0xc3c>
   20808:	5801831e 	bne	r11,zero,20e18 <___vfprintf_internal_r+0xc48>
   2080c:	6025883a 	mov	r18,r12
   20810:	0017883a 	mov	r11,zero
   20814:	0029883a 	mov	r20,zero
   20818:	b823883a 	mov	r17,r23
   2081c:	00018306 	br	20e2c <___vfprintf_internal_r+0xc5c>
   20820:	d8c00617 	ldw	r3,24(sp)
   20824:	d8001545 	stb	zero,85(sp)
   20828:	05400044 	movi	r21,1
   2082c:	18800017 	ldw	r2,0(r3)
   20830:	18c00104 	addi	r3,r3,4
   20834:	d8c00615 	stw	r3,24(sp)
   20838:	d8801f05 	stb	r2,124(sp)
   2083c:	05000044 	movi	r20,1
   20840:	dc401f04 	addi	r17,sp,124
   20844:	6025883a 	mov	r18,r12
   20848:	0017883a 	mov	r11,zero
   2084c:	d8000715 	stw	zero,28(sp)
   20850:	9380008c 	andi	r14,r18,2
   20854:	70000126 	beq	r14,zero,2085c <___vfprintf_internal_r+0x68c>
   20858:	ad400084 	addi	r21,r21,2
   2085c:	9340210c 	andi	r13,r18,132
   20860:	d8c01e17 	ldw	r3,120(sp)
   20864:	6800021e 	bne	r13,zero,20870 <___vfprintf_internal_r+0x6a0>
   20868:	854fc83a 	sub	r7,r16,r21
   2086c:	01c2ce16 	blt	zero,r7,213a8 <___vfprintf_internal_r+0x11d8>
   20870:	d8801547 	ldb	r2,85(sp)
   20874:	10000c26 	beq	r2,zero,208a8 <___vfprintf_internal_r+0x6d8>
   20878:	d8801d17 	ldw	r2,116(sp)
   2087c:	d9001544 	addi	r4,sp,85
   20880:	18c00044 	addi	r3,r3,1
   20884:	10800044 	addi	r2,r2,1
   20888:	41000015 	stw	r4,0(r8)
   2088c:	01000044 	movi	r4,1
   20890:	d8801d15 	stw	r2,116(sp)
   20894:	41000115 	stw	r4,4(r8)
   20898:	d8c01e15 	stw	r3,120(sp)
   2089c:	10800208 	cmpgei	r2,r2,8
   208a0:	1002fb1e 	bne	r2,zero,21490 <___vfprintf_internal_r+0x12c0>
   208a4:	42000204 	addi	r8,r8,8
   208a8:	70000c26 	beq	r14,zero,208dc <___vfprintf_internal_r+0x70c>
   208ac:	d8801d17 	ldw	r2,116(sp)
   208b0:	d9001584 	addi	r4,sp,86
   208b4:	18c00084 	addi	r3,r3,2
   208b8:	10800044 	addi	r2,r2,1
   208bc:	41000015 	stw	r4,0(r8)
   208c0:	01000084 	movi	r4,2
   208c4:	d8801d15 	stw	r2,116(sp)
   208c8:	41000115 	stw	r4,4(r8)
   208cc:	d8c01e15 	stw	r3,120(sp)
   208d0:	10800208 	cmpgei	r2,r2,8
   208d4:	1002fc1e 	bne	r2,zero,214c8 <___vfprintf_internal_r+0x12f8>
   208d8:	42000204 	addi	r8,r8,8
   208dc:	6b402018 	cmpnei	r13,r13,128
   208e0:	6801cf26 	beq	r13,zero,21020 <___vfprintf_internal_r+0xe50>
   208e4:	5d0fc83a 	sub	r7,r11,r20
   208e8:	01c20616 	blt	zero,r7,21104 <___vfprintf_internal_r+0xf34>
   208ec:	9080400c 	andi	r2,r18,256
   208f0:	10017c1e 	bne	r2,zero,20ee4 <___vfprintf_internal_r+0xd14>
   208f4:	d8801d17 	ldw	r2,116(sp)
   208f8:	1d07883a 	add	r3,r3,r20
   208fc:	44400015 	stw	r17,0(r8)
   20900:	10800044 	addi	r2,r2,1
   20904:	d8801d15 	stw	r2,116(sp)
   20908:	45000115 	stw	r20,4(r8)
   2090c:	d8c01e15 	stw	r3,120(sp)
   20910:	10800208 	cmpgei	r2,r2,8
   20914:	1002571e 	bne	r2,zero,21274 <___vfprintf_internal_r+0x10a4>
   20918:	42000204 	addi	r8,r8,8
   2091c:	9480010c 	andi	r18,r18,4
   20920:	90000226 	beq	r18,zero,2092c <___vfprintf_internal_r+0x75c>
   20924:	8563c83a 	sub	r17,r16,r21
   20928:	04400916 	blt	zero,r17,20950 <___vfprintf_internal_r+0x780>
   2092c:	8540010e 	bge	r16,r21,20934 <___vfprintf_internal_r+0x764>
   20930:	a821883a 	mov	r16,r21
   20934:	d8800417 	ldw	r2,16(sp)
   20938:	1405883a 	add	r2,r2,r16
   2093c:	d8800415 	stw	r2,16(sp)
   20940:	1802241e 	bne	r3,zero,211d4 <___vfprintf_internal_r+0x1004>
   20944:	d8001d15 	stw	zero,116(sp)
   20948:	b811883a 	mov	r8,r23
   2094c:	003e5506 	br	202a4 <___vfprintf_internal_r+0xd4>
   20950:	030000f4 	movhi	r12,3
   20954:	89000450 	cmplti	r4,r17,17
   20958:	63390a84 	addi	r12,r12,-7126
   2095c:	d8801d17 	ldw	r2,116(sp)
   20960:	20001c1e 	bne	r4,zero,209d4 <___vfprintf_internal_r+0x804>
   20964:	04800404 	movi	r18,16
   20968:	dd000517 	ldw	r20,20(sp)
   2096c:	6039883a 	mov	fp,r12
   20970:	00000406 	br	20984 <___vfprintf_internal_r+0x7b4>
   20974:	8c7ffc04 	addi	r17,r17,-16
   20978:	89000448 	cmpgei	r4,r17,17
   2097c:	42000204 	addi	r8,r8,8
   20980:	20001326 	beq	r4,zero,209d0 <___vfprintf_internal_r+0x800>
   20984:	10800044 	addi	r2,r2,1
   20988:	18c00404 	addi	r3,r3,16
   2098c:	47000015 	stw	fp,0(r8)
   20990:	44800115 	stw	r18,4(r8)
   20994:	d8c01e15 	stw	r3,120(sp)
   20998:	d8801d15 	stw	r2,116(sp)
   2099c:	11000208 	cmpgei	r4,r2,8
   209a0:	203ff426 	beq	r4,zero,20974 <___vfprintf_internal_r+0x7a4>
   209a4:	d9801c04 	addi	r6,sp,112
   209a8:	980b883a 	mov	r5,r19
   209ac:	a009883a 	mov	r4,r20
   209b0:	00269980 	call	26998 <__sprint_r>
   209b4:	103ee51e 	bne	r2,zero,2054c <___vfprintf_internal_r+0x37c>
   209b8:	8c7ffc04 	addi	r17,r17,-16
   209bc:	89000448 	cmpgei	r4,r17,17
   209c0:	d8c01e17 	ldw	r3,120(sp)
   209c4:	d8801d17 	ldw	r2,116(sp)
   209c8:	b811883a 	mov	r8,r23
   209cc:	203fed1e 	bne	r4,zero,20984 <___vfprintf_internal_r+0x7b4>
   209d0:	e019883a 	mov	r12,fp
   209d4:	10800044 	addi	r2,r2,1
   209d8:	1c47883a 	add	r3,r3,r17
   209dc:	d8801d15 	stw	r2,116(sp)
   209e0:	43000015 	stw	r12,0(r8)
   209e4:	44400115 	stw	r17,4(r8)
   209e8:	d8c01e15 	stw	r3,120(sp)
   209ec:	10800210 	cmplti	r2,r2,8
   209f0:	103fce1e 	bne	r2,zero,2092c <___vfprintf_internal_r+0x75c>
   209f4:	d9000517 	ldw	r4,20(sp)
   209f8:	d9801c04 	addi	r6,sp,112
   209fc:	980b883a 	mov	r5,r19
   20a00:	00269980 	call	26998 <__sprint_r>
   20a04:	103ed11e 	bne	r2,zero,2054c <___vfprintf_internal_r+0x37c>
   20a08:	d8c01e17 	ldw	r3,120(sp)
   20a0c:	003fc706 	br	2092c <___vfprintf_internal_r+0x75c>
   20a10:	21003fcc 	andi	r4,r4,255
   20a14:	2005de1e 	bne	r4,zero,22190 <___vfprintf_internal_r+0x1fc0>
   20a18:	6080080c 	andi	r2,r12,32
   20a1c:	1000ed1e 	bne	r2,zero,20dd4 <___vfprintf_internal_r+0xc04>
   20a20:	d8800617 	ldw	r2,24(sp)
   20a24:	60c0040c 	andi	r3,r12,16
   20a28:	15400017 	ldw	r21,0(r2)
   20a2c:	10800104 	addi	r2,r2,4
   20a30:	18001e1e 	bne	r3,zero,20aac <___vfprintf_internal_r+0x8dc>
   20a34:	60c0100c 	andi	r3,r12,64
   20a38:	1804e126 	beq	r3,zero,21dc0 <___vfprintf_internal_r+0x1bf0>
   20a3c:	d8800615 	stw	r2,24(sp)
   20a40:	ad7fffcc 	andi	r21,r21,65535
   20a44:	0029883a 	mov	r20,zero
   20a48:	0005883a 	mov	r2,zero
   20a4c:	0000bf06 	br	20d4c <___vfprintf_internal_r+0xb7c>
   20a50:	21003fcc 	andi	r4,r4,255
   20a54:	2005d01e 	bne	r4,zero,22198 <___vfprintf_internal_r+0x1fc8>
   20a58:	d9000617 	ldw	r4,24(sp)
   20a5c:	6080080c 	andi	r2,r12,32
   20a60:	20c00104 	addi	r3,r4,4
   20a64:	1003d81e 	bne	r2,zero,219c8 <___vfprintf_internal_r+0x17f8>
   20a68:	6080040c 	andi	r2,r12,16
   20a6c:	1004321e 	bne	r2,zero,21b38 <___vfprintf_internal_r+0x1968>
   20a70:	6300100c 	andi	r12,r12,64
   20a74:	60043026 	beq	r12,zero,21b38 <___vfprintf_internal_r+0x1968>
   20a78:	d8800617 	ldw	r2,24(sp)
   20a7c:	d8c00615 	stw	r3,24(sp)
   20a80:	d8c00417 	ldw	r3,16(sp)
   20a84:	10800017 	ldw	r2,0(r2)
   20a88:	10c0000d 	sth	r3,0(r2)
   20a8c:	003e0506 	br	202a4 <___vfprintf_internal_r+0xd4>
   20a90:	21003fcc 	andi	r4,r4,255
   20a94:	2005c81e 	bne	r4,zero,221b8 <___vfprintf_internal_r+0x1fe8>
   20a98:	6080080c 	andi	r2,r12,32
   20a9c:	63000414 	ori	r12,r12,16
   20aa0:	1000cc1e 	bne	r2,zero,20dd4 <___vfprintf_internal_r+0xc04>
   20aa4:	d8800617 	ldw	r2,24(sp)
   20aa8:	10800104 	addi	r2,r2,4
   20aac:	d8c00617 	ldw	r3,24(sp)
   20ab0:	0029883a 	mov	r20,zero
   20ab4:	d8800615 	stw	r2,24(sp)
   20ab8:	1d400017 	ldw	r21,0(r3)
   20abc:	0005883a 	mov	r2,zero
   20ac0:	0000a206 	br	20d4c <___vfprintf_internal_r+0xb7c>
   20ac4:	63000214 	ori	r12,r12,8
   20ac8:	b2800007 	ldb	r10,0(r22)
   20acc:	003e1b06 	br	2033c <___vfprintf_internal_r+0x16c>
   20ad0:	21003fcc 	andi	r4,r4,255
   20ad4:	2005bc1e 	bne	r4,zero,221c8 <___vfprintf_internal_r+0x1ff8>
   20ad8:	d8c00617 	ldw	r3,24(sp)
   20adc:	00a00034 	movhi	r2,32768
   20ae0:	10bfffc4 	addi	r2,r2,-1
   20ae4:	1d000117 	ldw	r20,4(r3)
   20ae8:	1c800017 	ldw	r18,0(r3)
   20aec:	01dffc34 	movhi	r7,32752
   20af0:	a0a2703a 	and	r17,r20,r2
   20af4:	01bfffc4 	movi	r6,-1
   20af8:	18800204 	addi	r2,r3,8
   20afc:	39ffffc4 	addi	r7,r7,-1
   20b00:	9009883a 	mov	r4,r18
   20b04:	880b883a 	mov	r5,r17
   20b08:	da000f15 	stw	r8,60(sp)
   20b0c:	dac00e15 	stw	r11,56(sp)
   20b10:	db000715 	stw	r12,28(sp)
   20b14:	dd000a15 	stw	r20,40(sp)
   20b18:	dc800915 	stw	r18,36(sp)
   20b1c:	d8800615 	stw	r2,24(sp)
   20b20:	002c87c0 	call	2c87c <__unorddf2>
   20b24:	db000717 	ldw	r12,28(sp)
   20b28:	dac00e17 	ldw	r11,56(sp)
   20b2c:	da000f17 	ldw	r8,60(sp)
   20b30:	1003191e 	bne	r2,zero,21798 <___vfprintf_internal_r+0x15c8>
   20b34:	01dffc34 	movhi	r7,32752
   20b38:	01bfffc4 	movi	r6,-1
   20b3c:	39ffffc4 	addi	r7,r7,-1
   20b40:	9009883a 	mov	r4,r18
   20b44:	880b883a 	mov	r5,r17
   20b48:	002b6400 	call	2b640 <__ledf2>
   20b4c:	db000717 	ldw	r12,28(sp)
   20b50:	dac00e17 	ldw	r11,56(sp)
   20b54:	da000f17 	ldw	r8,60(sp)
   20b58:	00830f0e 	bge	zero,r2,21798 <___vfprintf_internal_r+0x15c8>
   20b5c:	000d883a 	mov	r6,zero
   20b60:	000f883a 	mov	r7,zero
   20b64:	9009883a 	mov	r4,r18
   20b68:	a00b883a 	mov	r5,r20
   20b6c:	da000e15 	stw	r8,56(sp)
   20b70:	002b6400 	call	2b640 <__ledf2>
   20b74:	db000717 	ldw	r12,28(sp)
   20b78:	da000e17 	ldw	r8,56(sp)
   20b7c:	1004e716 	blt	r2,zero,21f1c <___vfprintf_internal_r+0x1d4c>
   20b80:	db401543 	ldbu	r13,85(sp)
   20b84:	e0801210 	cmplti	r2,fp,72
   20b88:	1004d11e 	bne	r2,zero,21ed0 <___vfprintf_internal_r+0x1d00>
   20b8c:	044000f4 	movhi	r17,3
   20b90:	8c78f704 	addi	r17,r17,-7204
   20b94:	04bfdfc4 	movi	r18,-129
   20b98:	64a4703a 	and	r18,r12,r18
   20b9c:	054000c4 	movi	r21,3
   20ba0:	050000c4 	movi	r20,3
   20ba4:	0017883a 	mov	r11,zero
   20ba8:	d8000715 	stw	zero,28(sp)
   20bac:	0000a306 	br	20e3c <___vfprintf_internal_r+0xc6c>
   20bb0:	21003fcc 	andi	r4,r4,255
   20bb4:	2005821e 	bne	r4,zero,221c0 <___vfprintf_internal_r+0x1ff0>
   20bb8:	6080080c 	andi	r2,r12,32
   20bbc:	63000414 	ori	r12,r12,16
   20bc0:	10007d1e 	bne	r2,zero,20db8 <___vfprintf_internal_r+0xbe8>
   20bc4:	d8800617 	ldw	r2,24(sp)
   20bc8:	10800104 	addi	r2,r2,4
   20bcc:	d8c00617 	ldw	r3,24(sp)
   20bd0:	1d400017 	ldw	r21,0(r3)
   20bd4:	d8800615 	stw	r2,24(sp)
   20bd8:	a829d7fa 	srai	r20,r21,31
   20bdc:	a005883a 	mov	r2,r20
   20be0:	103f020e 	bge	r2,zero,207ec <___vfprintf_internal_r+0x61c>
   20be4:	056bc83a 	sub	r21,zero,r21
   20be8:	a804c03a 	cmpne	r2,r21,zero
   20bec:	0529c83a 	sub	r20,zero,r20
   20bf0:	a0a9c83a 	sub	r20,r20,r2
   20bf4:	00800b44 	movi	r2,45
   20bf8:	d8801545 	stb	r2,85(sp)
   20bfc:	58ffffe0 	cmpeqi	r3,r11,-1
   20c00:	03400b44 	movi	r13,45
   20c04:	00800044 	movi	r2,1
   20c08:	18005426 	beq	r3,zero,20d5c <___vfprintf_internal_r+0xb8c>
   20c0c:	10c00060 	cmpeqi	r3,r2,1
   20c10:	18007e1e 	bne	r3,zero,20e0c <___vfprintf_internal_r+0xc3c>
   20c14:	108000a0 	cmpeqi	r2,r2,2
   20c18:	1002371e 	bne	r2,zero,214f8 <___vfprintf_internal_r+0x1328>
   20c1c:	b807883a 	mov	r3,r23
   20c20:	00000106 	br	20c28 <___vfprintf_internal_r+0xa58>
   20c24:	8807883a 	mov	r3,r17
   20c28:	a808d0fa 	srli	r4,r21,3
   20c2c:	a00a977a 	slli	r5,r20,29
   20c30:	a028d0fa 	srli	r20,r20,3
   20c34:	ad4001cc 	andi	r21,r21,7
   20c38:	a8800c04 	addi	r2,r21,48
   20c3c:	292ab03a 	or	r21,r5,r4
   20c40:	18bfffc5 	stb	r2,-1(r3)
   20c44:	ad08b03a 	or	r4,r21,r20
   20c48:	1c7fffc4 	addi	r17,r3,-1
   20c4c:	203ff51e 	bne	r4,zero,20c24 <___vfprintf_internal_r+0xa54>
   20c50:	6100004c 	andi	r4,r12,1
   20c54:	2000a026 	beq	r4,zero,20ed8 <___vfprintf_internal_r+0xd08>
   20c58:	10803fcc 	andi	r2,r2,255
   20c5c:	1080201c 	xori	r2,r2,128
   20c60:	10bfe004 	addi	r2,r2,-128
   20c64:	10800c18 	cmpnei	r2,r2,48
   20c68:	10009b26 	beq	r2,zero,20ed8 <___vfprintf_internal_r+0xd08>
   20c6c:	18ffff84 	addi	r3,r3,-2
   20c70:	00800c04 	movi	r2,48
   20c74:	88bfffc5 	stb	r2,-1(r17)
   20c78:	b8e9c83a 	sub	r20,r23,r3
   20c7c:	6025883a 	mov	r18,r12
   20c80:	1823883a 	mov	r17,r3
   20c84:	00006906 	br	20e2c <___vfprintf_internal_r+0xc5c>
   20c88:	21003fcc 	andi	r4,r4,255
   20c8c:	20053e1e 	bne	r4,zero,22188 <___vfprintf_internal_r+0x1fb8>
   20c90:	008000f4 	movhi	r2,3
   20c94:	10b8fa04 	addi	r2,r2,-7192
   20c98:	d8800c15 	stw	r2,48(sp)
   20c9c:	6080080c 	andi	r2,r12,32
   20ca0:	103e901e 	bne	r2,zero,206e4 <___vfprintf_internal_r+0x514>
   20ca4:	d8c00617 	ldw	r3,24(sp)
   20ca8:	6080040c 	andi	r2,r12,16
   20cac:	1d400017 	ldw	r21,0(r3)
   20cb0:	18c00104 	addi	r3,r3,4
   20cb4:	d8c00615 	stw	r3,24(sp)
   20cb8:	1002b11e 	bne	r2,zero,21780 <___vfprintf_internal_r+0x15b0>
   20cbc:	6080100c 	andi	r2,r12,64
   20cc0:	1002af26 	beq	r2,zero,21780 <___vfprintf_internal_r+0x15b0>
   20cc4:	ad7fffcc 	andi	r21,r21,65535
   20cc8:	0029883a 	mov	r20,zero
   20ccc:	003e8a06 	br	206f8 <___vfprintf_internal_r+0x528>
   20cd0:	21003fcc 	andi	r4,r4,255
   20cd4:	20053e1e 	bne	r4,zero,221d0 <___vfprintf_internal_r+0x2000>
   20cd8:	6080080c 	andi	r2,r12,32
   20cdc:	63000414 	ori	r12,r12,16
   20ce0:	1000431e 	bne	r2,zero,20df0 <___vfprintf_internal_r+0xc20>
   20ce4:	d8800617 	ldw	r2,24(sp)
   20ce8:	10800104 	addi	r2,r2,4
   20cec:	d8c00617 	ldw	r3,24(sp)
   20cf0:	0029883a 	mov	r20,zero
   20cf4:	d8800615 	stw	r2,24(sp)
   20cf8:	1d400017 	ldw	r21,0(r3)
   20cfc:	00800044 	movi	r2,1
   20d00:	00001206 	br	20d4c <___vfprintf_internal_r+0xb7c>
   20d04:	63000814 	ori	r12,r12,32
   20d08:	b2800007 	ldb	r10,0(r22)
   20d0c:	003d8b06 	br	2033c <___vfprintf_internal_r+0x16c>
   20d10:	d8c00617 	ldw	r3,24(sp)
   20d14:	00800c04 	movi	r2,48
   20d18:	d8801585 	stb	r2,86(sp)
   20d1c:	00801e04 	movi	r2,120
   20d20:	010000f4 	movhi	r4,3
   20d24:	d88015c5 	stb	r2,87(sp)
   20d28:	1d400017 	ldw	r21,0(r3)
   20d2c:	18800104 	addi	r2,r3,4
   20d30:	d8800615 	stw	r2,24(sp)
   20d34:	20b8ff04 	addi	r2,r4,-7172
   20d38:	d8800c15 	stw	r2,48(sp)
   20d3c:	0029883a 	mov	r20,zero
   20d40:	63000094 	ori	r12,r12,2
   20d44:	00800084 	movi	r2,2
   20d48:	07001e04 	movi	fp,120
   20d4c:	d8001545 	stb	zero,85(sp)
   20d50:	58ffffe0 	cmpeqi	r3,r11,-1
   20d54:	001b883a 	mov	r13,zero
   20d58:	183fac1e 	bne	r3,zero,20c0c <___vfprintf_internal_r+0xa3c>
   20d5c:	04bfdfc4 	movi	r18,-129
   20d60:	ad06b03a 	or	r3,r21,r20
   20d64:	64a4703a 	and	r18,r12,r18
   20d68:	18018d1e 	bne	r3,zero,213a0 <___vfprintf_internal_r+0x11d0>
   20d6c:	5803bb1e 	bne	r11,zero,21c5c <___vfprintf_internal_r+0x1a8c>
   20d70:	103ea71e 	bne	r2,zero,20810 <___vfprintf_internal_r+0x640>
   20d74:	6500004c 	andi	r20,r12,1
   20d78:	a0028526 	beq	r20,zero,21790 <___vfprintf_internal_r+0x15c0>
   20d7c:	00800c04 	movi	r2,48
   20d80:	d88028c5 	stb	r2,163(sp)
   20d84:	dc4028c4 	addi	r17,sp,163
   20d88:	00002806 	br	20e2c <___vfprintf_internal_r+0xc5c>
   20d8c:	b2800007 	ldb	r10,0(r22)
   20d90:	50801b18 	cmpnei	r2,r10,108
   20d94:	10032c26 	beq	r2,zero,21a48 <___vfprintf_internal_r+0x1878>
   20d98:	63000414 	ori	r12,r12,16
   20d9c:	003d6706 	br	2033c <___vfprintf_internal_r+0x16c>
   20da0:	63001014 	ori	r12,r12,64
   20da4:	b2800007 	ldb	r10,0(r22)
   20da8:	003d6406 	br	2033c <___vfprintf_internal_r+0x16c>
   20dac:	d9000517 	ldw	r4,20(sp)
   20db0:	00244480 	call	24448 <__sinit>
   20db4:	003d1f06 	br	20234 <___vfprintf_internal_r+0x64>
   20db8:	d8c00617 	ldw	r3,24(sp)
   20dbc:	18800117 	ldw	r2,4(r3)
   20dc0:	1d400017 	ldw	r21,0(r3)
   20dc4:	18c00204 	addi	r3,r3,8
   20dc8:	d8c00615 	stw	r3,24(sp)
   20dcc:	1029883a 	mov	r20,r2
   20dd0:	003e8506 	br	207e8 <___vfprintf_internal_r+0x618>
   20dd4:	d8c00617 	ldw	r3,24(sp)
   20dd8:	0005883a 	mov	r2,zero
   20ddc:	1d400017 	ldw	r21,0(r3)
   20de0:	1d000117 	ldw	r20,4(r3)
   20de4:	18c00204 	addi	r3,r3,8
   20de8:	d8c00615 	stw	r3,24(sp)
   20dec:	003fd706 	br	20d4c <___vfprintf_internal_r+0xb7c>
   20df0:	d8c00617 	ldw	r3,24(sp)
   20df4:	00800044 	movi	r2,1
   20df8:	1d400017 	ldw	r21,0(r3)
   20dfc:	1d000117 	ldw	r20,4(r3)
   20e00:	18c00204 	addi	r3,r3,8
   20e04:	d8c00615 	stw	r3,24(sp)
   20e08:	003fd006 	br	20d4c <___vfprintf_internal_r+0xb7c>
   20e0c:	a000111e 	bne	r20,zero,20e54 <___vfprintf_internal_r+0xc84>
   20e10:	a88002a8 	cmpgeui	r2,r21,10
   20e14:	10000f1e 	bne	r2,zero,20e54 <___vfprintf_internal_r+0xc84>
   20e18:	ad400c04 	addi	r21,r21,48
   20e1c:	dd4028c5 	stb	r21,163(sp)
   20e20:	6025883a 	mov	r18,r12
   20e24:	05000044 	movi	r20,1
   20e28:	dc4028c4 	addi	r17,sp,163
   20e2c:	582b883a 	mov	r21,r11
   20e30:	5d00010e 	bge	r11,r20,20e38 <___vfprintf_internal_r+0xc68>
   20e34:	a02b883a 	mov	r21,r20
   20e38:	d8000715 	stw	zero,28(sp)
   20e3c:	6b403fcc 	andi	r13,r13,255
   20e40:	6b40201c 	xori	r13,r13,128
   20e44:	6b7fe004 	addi	r13,r13,-128
   20e48:	683e8126 	beq	r13,zero,20850 <___vfprintf_internal_r+0x680>
   20e4c:	ad400044 	addi	r21,r21,1
   20e50:	003e7f06 	br	20850 <___vfprintf_internal_r+0x680>
   20e54:	dc000e15 	stw	r16,56(sp)
   20e58:	b823883a 	mov	r17,r23
   20e5c:	a021883a 	mov	r16,r20
   20e60:	db000715 	stw	r12,28(sp)
   20e64:	9829883a 	mov	r20,r19
   20e68:	dac00f15 	stw	r11,60(sp)
   20e6c:	4025883a 	mov	r18,r8
   20e70:	6827883a 	mov	r19,r13
   20e74:	00000206 	br	20e80 <___vfprintf_internal_r+0xcb0>
   20e78:	102b883a 	mov	r21,r2
   20e7c:	1821883a 	mov	r16,r3
   20e80:	a809883a 	mov	r4,r21
   20e84:	800b883a 	mov	r5,r16
   20e88:	01800284 	movi	r6,10
   20e8c:	000f883a 	mov	r7,zero
   20e90:	0029a4c0 	call	29a4c <__umoddi3>
   20e94:	10800c04 	addi	r2,r2,48
   20e98:	8c7fffc4 	addi	r17,r17,-1
   20e9c:	a809883a 	mov	r4,r21
   20ea0:	800b883a 	mov	r5,r16
   20ea4:	88800005 	stb	r2,0(r17)
   20ea8:	01800284 	movi	r6,10
   20eac:	000f883a 	mov	r7,zero
   20eb0:	00294300 	call	29430 <__udivdi3>
   20eb4:	803ff01e 	bne	r16,zero,20e78 <___vfprintf_internal_r+0xca8>
   20eb8:	ad4002a8 	cmpgeui	r21,r21,10
   20ebc:	a83fee1e 	bne	r21,zero,20e78 <___vfprintf_internal_r+0xca8>
   20ec0:	db000717 	ldw	r12,28(sp)
   20ec4:	dc000e17 	ldw	r16,56(sp)
   20ec8:	dac00f17 	ldw	r11,60(sp)
   20ecc:	981b883a 	mov	r13,r19
   20ed0:	9011883a 	mov	r8,r18
   20ed4:	a027883a 	mov	r19,r20
   20ed8:	bc69c83a 	sub	r20,r23,r17
   20edc:	6025883a 	mov	r18,r12
   20ee0:	003fd206 	br	20e2c <___vfprintf_internal_r+0xc5c>
   20ee4:	e2801990 	cmplti	r10,fp,102
   20ee8:	5000ea1e 	bne	r10,zero,21294 <___vfprintf_internal_r+0x10c4>
   20eec:	d9000917 	ldw	r4,36(sp)
   20ef0:	d9400a17 	ldw	r5,40(sp)
   20ef4:	000d883a 	mov	r6,zero
   20ef8:	000f883a 	mov	r7,zero
   20efc:	da000f15 	stw	r8,60(sp)
   20f00:	d8c00e15 	stw	r3,56(sp)
   20f04:	002b4d00 	call	2b4d0 <__eqdf2>
   20f08:	d8c00e17 	ldw	r3,56(sp)
   20f0c:	da000f17 	ldw	r8,60(sp)
   20f10:	1001891e 	bne	r2,zero,21538 <___vfprintf_internal_r+0x1368>
   20f14:	d8801d17 	ldw	r2,116(sp)
   20f18:	010000f4 	movhi	r4,3
   20f1c:	21390604 	addi	r4,r4,-7144
   20f20:	10800044 	addi	r2,r2,1
   20f24:	18c00044 	addi	r3,r3,1
   20f28:	41000015 	stw	r4,0(r8)
   20f2c:	01000044 	movi	r4,1
   20f30:	d8801d15 	stw	r2,116(sp)
   20f34:	41000115 	stw	r4,4(r8)
   20f38:	d8c01e15 	stw	r3,120(sp)
   20f3c:	10800208 	cmpgei	r2,r2,8
   20f40:	1003351e 	bne	r2,zero,21c18 <___vfprintf_internal_r+0x1a48>
   20f44:	42000204 	addi	r8,r8,8
   20f48:	d8801617 	ldw	r2,88(sp)
   20f4c:	d8c00817 	ldw	r3,32(sp)
   20f50:	10c00416 	blt	r2,r3,20f64 <___vfprintf_internal_r+0xd94>
   20f54:	9080004c 	andi	r2,r18,1
   20f58:	1000021e 	bne	r2,zero,20f64 <___vfprintf_internal_r+0xd94>
   20f5c:	d8c01e17 	ldw	r3,120(sp)
   20f60:	003e6e06 	br	2091c <___vfprintf_internal_r+0x74c>
   20f64:	d8800d17 	ldw	r2,52(sp)
   20f68:	d8c01e17 	ldw	r3,120(sp)
   20f6c:	d9000b17 	ldw	r4,44(sp)
   20f70:	40800015 	stw	r2,0(r8)
   20f74:	d8801d17 	ldw	r2,116(sp)
   20f78:	20c7883a 	add	r3,r4,r3
   20f7c:	41000115 	stw	r4,4(r8)
   20f80:	10800044 	addi	r2,r2,1
   20f84:	d8801d15 	stw	r2,116(sp)
   20f88:	d8c01e15 	stw	r3,120(sp)
   20f8c:	10800208 	cmpgei	r2,r2,8
   20f90:	1002b41e 	bne	r2,zero,21a64 <___vfprintf_internal_r+0x1894>
   20f94:	42000204 	addi	r8,r8,8
   20f98:	d8800817 	ldw	r2,32(sp)
   20f9c:	147fffc4 	addi	r17,r2,-1
   20fa0:	047e5e0e 	bge	zero,r17,2091c <___vfprintf_internal_r+0x74c>
   20fa4:	030000f4 	movhi	r12,3
   20fa8:	89000450 	cmplti	r4,r17,17
   20fac:	63390684 	addi	r12,r12,-7142
   20fb0:	d8801d17 	ldw	r2,116(sp)
   20fb4:	2003791e 	bne	r4,zero,21d9c <___vfprintf_internal_r+0x1bcc>
   20fb8:	dc000715 	stw	r16,28(sp)
   20fbc:	05000404 	movi	r20,16
   20fc0:	df000517 	ldw	fp,20(sp)
   20fc4:	6021883a 	mov	r16,r12
   20fc8:	00000406 	br	20fdc <___vfprintf_internal_r+0xe0c>
   20fcc:	42000204 	addi	r8,r8,8
   20fd0:	8c7ffc04 	addi	r17,r17,-16
   20fd4:	89000448 	cmpgei	r4,r17,17
   20fd8:	20036e26 	beq	r4,zero,21d94 <___vfprintf_internal_r+0x1bc4>
   20fdc:	10800044 	addi	r2,r2,1
   20fe0:	18c00404 	addi	r3,r3,16
   20fe4:	44000015 	stw	r16,0(r8)
   20fe8:	45000115 	stw	r20,4(r8)
   20fec:	d8c01e15 	stw	r3,120(sp)
   20ff0:	d8801d15 	stw	r2,116(sp)
   20ff4:	11000208 	cmpgei	r4,r2,8
   20ff8:	203ff426 	beq	r4,zero,20fcc <___vfprintf_internal_r+0xdfc>
   20ffc:	d9801c04 	addi	r6,sp,112
   21000:	980b883a 	mov	r5,r19
   21004:	e009883a 	mov	r4,fp
   21008:	00269980 	call	26998 <__sprint_r>
   2100c:	103d4f1e 	bne	r2,zero,2054c <___vfprintf_internal_r+0x37c>
   21010:	d8c01e17 	ldw	r3,120(sp)
   21014:	d8801d17 	ldw	r2,116(sp)
   21018:	b811883a 	mov	r8,r23
   2101c:	003fec06 	br	20fd0 <___vfprintf_internal_r+0xe00>
   21020:	854fc83a 	sub	r7,r16,r21
   21024:	01fe2f0e 	bge	zero,r7,208e4 <___vfprintf_internal_r+0x714>
   21028:	030000f4 	movhi	r12,3
   2102c:	39000450 	cmplti	r4,r7,17
   21030:	63390684 	addi	r12,r12,-7142
   21034:	d8801d17 	ldw	r2,116(sp)
   21038:	2000271e 	bne	r4,zero,210d8 <___vfprintf_internal_r+0xf08>
   2103c:	dc400e15 	stw	r17,56(sp)
   21040:	dc800f15 	stw	r18,60(sp)
   21044:	dc001015 	stw	r16,64(sp)
   21048:	03400404 	movi	r13,16
   2104c:	3821883a 	mov	r16,r7
   21050:	dac01215 	stw	r11,72(sp)
   21054:	dc400517 	ldw	r17,20(sp)
   21058:	6025883a 	mov	r18,r12
   2105c:	00000406 	br	21070 <___vfprintf_internal_r+0xea0>
   21060:	843ffc04 	addi	r16,r16,-16
   21064:	81000448 	cmpgei	r4,r16,17
   21068:	42000204 	addi	r8,r8,8
   2106c:	20001426 	beq	r4,zero,210c0 <___vfprintf_internal_r+0xef0>
   21070:	10800044 	addi	r2,r2,1
   21074:	18c00404 	addi	r3,r3,16
   21078:	44800015 	stw	r18,0(r8)
   2107c:	43400115 	stw	r13,4(r8)
   21080:	d8c01e15 	stw	r3,120(sp)
   21084:	d8801d15 	stw	r2,116(sp)
   21088:	11000208 	cmpgei	r4,r2,8
   2108c:	203ff426 	beq	r4,zero,21060 <___vfprintf_internal_r+0xe90>
   21090:	d9801c04 	addi	r6,sp,112
   21094:	980b883a 	mov	r5,r19
   21098:	8809883a 	mov	r4,r17
   2109c:	00269980 	call	26998 <__sprint_r>
   210a0:	103d2a1e 	bne	r2,zero,2054c <___vfprintf_internal_r+0x37c>
   210a4:	843ffc04 	addi	r16,r16,-16
   210a8:	81000448 	cmpgei	r4,r16,17
   210ac:	d8c01e17 	ldw	r3,120(sp)
   210b0:	d8801d17 	ldw	r2,116(sp)
   210b4:	b811883a 	mov	r8,r23
   210b8:	03400404 	movi	r13,16
   210bc:	203fec1e 	bne	r4,zero,21070 <___vfprintf_internal_r+0xea0>
   210c0:	800f883a 	mov	r7,r16
   210c4:	9019883a 	mov	r12,r18
   210c8:	dc400e17 	ldw	r17,56(sp)
   210cc:	dc001017 	ldw	r16,64(sp)
   210d0:	dac01217 	ldw	r11,72(sp)
   210d4:	dc800f17 	ldw	r18,60(sp)
   210d8:	10800044 	addi	r2,r2,1
   210dc:	19c7883a 	add	r3,r3,r7
   210e0:	d8801d15 	stw	r2,116(sp)
   210e4:	43000015 	stw	r12,0(r8)
   210e8:	41c00115 	stw	r7,4(r8)
   210ec:	d8c01e15 	stw	r3,120(sp)
   210f0:	10800208 	cmpgei	r2,r2,8
   210f4:	1002cf1e 	bne	r2,zero,21c34 <___vfprintf_internal_r+0x1a64>
   210f8:	5d0fc83a 	sub	r7,r11,r20
   210fc:	42000204 	addi	r8,r8,8
   21100:	01fdfa0e 	bge	zero,r7,208ec <___vfprintf_internal_r+0x71c>
   21104:	030000f4 	movhi	r12,3
   21108:	39000450 	cmplti	r4,r7,17
   2110c:	63390684 	addi	r12,r12,-7142
   21110:	d8801d17 	ldw	r2,116(sp)
   21114:	2000251e 	bne	r4,zero,211ac <___vfprintf_internal_r+0xfdc>
   21118:	dc400e15 	stw	r17,56(sp)
   2111c:	dc800f15 	stw	r18,60(sp)
   21120:	dc001015 	stw	r16,64(sp)
   21124:	02c00404 	movi	r11,16
   21128:	3821883a 	mov	r16,r7
   2112c:	dc400517 	ldw	r17,20(sp)
   21130:	6025883a 	mov	r18,r12
   21134:	00000406 	br	21148 <___vfprintf_internal_r+0xf78>
   21138:	843ffc04 	addi	r16,r16,-16
   2113c:	81000448 	cmpgei	r4,r16,17
   21140:	42000204 	addi	r8,r8,8
   21144:	20001426 	beq	r4,zero,21198 <___vfprintf_internal_r+0xfc8>
   21148:	10800044 	addi	r2,r2,1
   2114c:	18c00404 	addi	r3,r3,16
   21150:	44800015 	stw	r18,0(r8)
   21154:	42c00115 	stw	r11,4(r8)
   21158:	d8c01e15 	stw	r3,120(sp)
   2115c:	d8801d15 	stw	r2,116(sp)
   21160:	11000208 	cmpgei	r4,r2,8
   21164:	203ff426 	beq	r4,zero,21138 <___vfprintf_internal_r+0xf68>
   21168:	d9801c04 	addi	r6,sp,112
   2116c:	980b883a 	mov	r5,r19
   21170:	8809883a 	mov	r4,r17
   21174:	00269980 	call	26998 <__sprint_r>
   21178:	103cf41e 	bne	r2,zero,2054c <___vfprintf_internal_r+0x37c>
   2117c:	843ffc04 	addi	r16,r16,-16
   21180:	81000448 	cmpgei	r4,r16,17
   21184:	d8c01e17 	ldw	r3,120(sp)
   21188:	d8801d17 	ldw	r2,116(sp)
   2118c:	b811883a 	mov	r8,r23
   21190:	02c00404 	movi	r11,16
   21194:	203fec1e 	bne	r4,zero,21148 <___vfprintf_internal_r+0xf78>
   21198:	800f883a 	mov	r7,r16
   2119c:	9019883a 	mov	r12,r18
   211a0:	dc400e17 	ldw	r17,56(sp)
   211a4:	dc001017 	ldw	r16,64(sp)
   211a8:	dc800f17 	ldw	r18,60(sp)
   211ac:	10800044 	addi	r2,r2,1
   211b0:	19c7883a 	add	r3,r3,r7
   211b4:	d8801d15 	stw	r2,116(sp)
   211b8:	43000015 	stw	r12,0(r8)
   211bc:	41c00115 	stw	r7,4(r8)
   211c0:	d8c01e15 	stw	r3,120(sp)
   211c4:	10800208 	cmpgei	r2,r2,8
   211c8:	1001651e 	bne	r2,zero,21760 <___vfprintf_internal_r+0x1590>
   211cc:	42000204 	addi	r8,r8,8
   211d0:	003dc606 	br	208ec <___vfprintf_internal_r+0x71c>
   211d4:	d9000517 	ldw	r4,20(sp)
   211d8:	d9801c04 	addi	r6,sp,112
   211dc:	980b883a 	mov	r5,r19
   211e0:	00269980 	call	26998 <__sprint_r>
   211e4:	103dd726 	beq	r2,zero,20944 <___vfprintf_internal_r+0x774>
   211e8:	003cd806 	br	2054c <___vfprintf_internal_r+0x37c>
   211ec:	d9000517 	ldw	r4,20(sp)
   211f0:	d9801c04 	addi	r6,sp,112
   211f4:	980b883a 	mov	r5,r19
   211f8:	00269980 	call	26998 <__sprint_r>
   211fc:	103cd31e 	bne	r2,zero,2054c <___vfprintf_internal_r+0x37c>
   21200:	d9001617 	ldw	r4,88(sp)
   21204:	d8c01e17 	ldw	r3,120(sp)
   21208:	b811883a 	mov	r8,r23
   2120c:	2002971e 	bne	r4,zero,21c6c <___vfprintf_internal_r+0x1a9c>
   21210:	d9000817 	ldw	r4,32(sp)
   21214:	9080004c 	andi	r2,r18,1
   21218:	1104b03a 	or	r2,r2,r4
   2121c:	103dbf26 	beq	r2,zero,2091c <___vfprintf_internal_r+0x74c>
   21220:	d8800d17 	ldw	r2,52(sp)
   21224:	d9000b17 	ldw	r4,44(sp)
   21228:	40800015 	stw	r2,0(r8)
   2122c:	d8801d17 	ldw	r2,116(sp)
   21230:	20c7883a 	add	r3,r4,r3
   21234:	41000115 	stw	r4,4(r8)
   21238:	10800044 	addi	r2,r2,1
   2123c:	d8c01e15 	stw	r3,120(sp)
   21240:	d8801d15 	stw	r2,116(sp)
   21244:	11000208 	cmpgei	r4,r2,8
   21248:	2003691e 	bne	r4,zero,21ff0 <___vfprintf_internal_r+0x1e20>
   2124c:	42000204 	addi	r8,r8,8
   21250:	d9000817 	ldw	r4,32(sp)
   21254:	10800044 	addi	r2,r2,1
   21258:	d8801d15 	stw	r2,116(sp)
   2125c:	20c7883a 	add	r3,r4,r3
   21260:	44400015 	stw	r17,0(r8)
   21264:	41000115 	stw	r4,4(r8)
   21268:	d8c01e15 	stw	r3,120(sp)
   2126c:	10800208 	cmpgei	r2,r2,8
   21270:	103da926 	beq	r2,zero,20918 <___vfprintf_internal_r+0x748>
   21274:	d9000517 	ldw	r4,20(sp)
   21278:	d9801c04 	addi	r6,sp,112
   2127c:	980b883a 	mov	r5,r19
   21280:	00269980 	call	26998 <__sprint_r>
   21284:	103cb11e 	bne	r2,zero,2054c <___vfprintf_internal_r+0x37c>
   21288:	d8c01e17 	ldw	r3,120(sp)
   2128c:	b811883a 	mov	r8,r23
   21290:	003da206 	br	2091c <___vfprintf_internal_r+0x74c>
   21294:	d8800817 	ldw	r2,32(sp)
   21298:	da801d17 	ldw	r10,116(sp)
   2129c:	18c00044 	addi	r3,r3,1
   212a0:	10800088 	cmpgei	r2,r2,2
   212a4:	55000044 	addi	r20,r10,1
   212a8:	47000204 	addi	fp,r8,8
   212ac:	1000fb26 	beq	r2,zero,2169c <___vfprintf_internal_r+0x14cc>
   212b0:	00800044 	movi	r2,1
   212b4:	40800115 	stw	r2,4(r8)
   212b8:	44400015 	stw	r17,0(r8)
   212bc:	d8c01e15 	stw	r3,120(sp)
   212c0:	dd001d15 	stw	r20,116(sp)
   212c4:	a0800210 	cmplti	r2,r20,8
   212c8:	10022e26 	beq	r2,zero,21b84 <___vfprintf_internal_r+0x19b4>
   212cc:	d8800b17 	ldw	r2,44(sp)
   212d0:	d9000d17 	ldw	r4,52(sp)
   212d4:	a5000044 	addi	r20,r20,1
   212d8:	1887883a 	add	r3,r3,r2
   212dc:	e0800115 	stw	r2,4(fp)
   212e0:	e1000015 	stw	r4,0(fp)
   212e4:	d8c01e15 	stw	r3,120(sp)
   212e8:	dd001d15 	stw	r20,116(sp)
   212ec:	a0800208 	cmpgei	r2,r20,8
   212f0:	10021b1e 	bne	r2,zero,21b60 <___vfprintf_internal_r+0x1990>
   212f4:	e7000204 	addi	fp,fp,8
   212f8:	d8800817 	ldw	r2,32(sp)
   212fc:	d9000917 	ldw	r4,36(sp)
   21300:	d9400a17 	ldw	r5,40(sp)
   21304:	a2800044 	addi	r10,r20,1
   21308:	e2000204 	addi	r8,fp,8
   2130c:	12ffffc4 	addi	r11,r2,-1
   21310:	000d883a 	mov	r6,zero
   21314:	000f883a 	mov	r7,zero
   21318:	d8c01215 	stw	r3,72(sp)
   2131c:	da801015 	stw	r10,64(sp)
   21320:	da800f15 	stw	r10,60(sp)
   21324:	da000e15 	stw	r8,56(sp)
   21328:	dac00715 	stw	r11,28(sp)
   2132c:	002b4d00 	call	2b4d0 <__eqdf2>
   21330:	dac00717 	ldw	r11,28(sp)
   21334:	da000e17 	ldw	r8,56(sp)
   21338:	db400f17 	ldw	r13,60(sp)
   2133c:	da801017 	ldw	r10,64(sp)
   21340:	d8c01217 	ldw	r3,72(sp)
   21344:	1000e126 	beq	r2,zero,216cc <___vfprintf_internal_r+0x14fc>
   21348:	8c400044 	addi	r17,r17,1
   2134c:	1ac7883a 	add	r3,r3,r11
   21350:	da801d15 	stw	r10,116(sp)
   21354:	e4400015 	stw	r17,0(fp)
   21358:	e2c00115 	stw	r11,4(fp)
   2135c:	d8c01e15 	stw	r3,120(sp)
   21360:	52800208 	cmpgei	r10,r10,8
   21364:	5001ad1e 	bne	r10,zero,21a1c <___vfprintf_internal_r+0x184c>
   21368:	e0800404 	addi	r2,fp,16
   2136c:	a2800084 	addi	r10,r20,2
   21370:	4039883a 	mov	fp,r8
   21374:	1011883a 	mov	r8,r2
   21378:	d9001117 	ldw	r4,68(sp)
   2137c:	d8801844 	addi	r2,sp,97
   21380:	da801d15 	stw	r10,116(sp)
   21384:	20c7883a 	add	r3,r4,r3
   21388:	e0800015 	stw	r2,0(fp)
   2138c:	e1000115 	stw	r4,4(fp)
   21390:	d8c01e15 	stw	r3,120(sp)
   21394:	52800210 	cmplti	r10,r10,8
   21398:	503d601e 	bne	r10,zero,2091c <___vfprintf_internal_r+0x74c>
   2139c:	003fb506 	br	21274 <___vfprintf_internal_r+0x10a4>
   213a0:	9019883a 	mov	r12,r18
   213a4:	003e1906 	br	20c0c <___vfprintf_internal_r+0xa3c>
   213a8:	030000f4 	movhi	r12,3
   213ac:	39000450 	cmplti	r4,r7,17
   213b0:	63390a84 	addi	r12,r12,-7126
   213b4:	d8801d17 	ldw	r2,116(sp)
   213b8:	20002b1e 	bne	r4,zero,21468 <___vfprintf_internal_r+0x1298>
   213bc:	dc401015 	stw	r17,64(sp)
   213c0:	dc801215 	stw	r18,72(sp)
   213c4:	dc001315 	stw	r16,76(sp)
   213c8:	03c00404 	movi	r15,16
   213cc:	db800e15 	stw	r14,56(sp)
   213d0:	db400f15 	stw	r13,60(sp)
   213d4:	dac01415 	stw	r11,80(sp)
   213d8:	3821883a 	mov	r16,r7
   213dc:	dc400517 	ldw	r17,20(sp)
   213e0:	6025883a 	mov	r18,r12
   213e4:	00000406 	br	213f8 <___vfprintf_internal_r+0x1228>
   213e8:	843ffc04 	addi	r16,r16,-16
   213ec:	81000448 	cmpgei	r4,r16,17
   213f0:	42000204 	addi	r8,r8,8
   213f4:	20001426 	beq	r4,zero,21448 <___vfprintf_internal_r+0x1278>
   213f8:	10800044 	addi	r2,r2,1
   213fc:	18c00404 	addi	r3,r3,16
   21400:	44800015 	stw	r18,0(r8)
   21404:	43c00115 	stw	r15,4(r8)
   21408:	d8c01e15 	stw	r3,120(sp)
   2140c:	d8801d15 	stw	r2,116(sp)
   21410:	11000208 	cmpgei	r4,r2,8
   21414:	203ff426 	beq	r4,zero,213e8 <___vfprintf_internal_r+0x1218>
   21418:	d9801c04 	addi	r6,sp,112
   2141c:	980b883a 	mov	r5,r19
   21420:	8809883a 	mov	r4,r17
   21424:	00269980 	call	26998 <__sprint_r>
   21428:	103c481e 	bne	r2,zero,2054c <___vfprintf_internal_r+0x37c>
   2142c:	843ffc04 	addi	r16,r16,-16
   21430:	81000448 	cmpgei	r4,r16,17
   21434:	d8c01e17 	ldw	r3,120(sp)
   21438:	d8801d17 	ldw	r2,116(sp)
   2143c:	b811883a 	mov	r8,r23
   21440:	03c00404 	movi	r15,16
   21444:	203fec1e 	bne	r4,zero,213f8 <___vfprintf_internal_r+0x1228>
   21448:	800f883a 	mov	r7,r16
   2144c:	9019883a 	mov	r12,r18
   21450:	db800e17 	ldw	r14,56(sp)
   21454:	db400f17 	ldw	r13,60(sp)
   21458:	dc401017 	ldw	r17,64(sp)
   2145c:	dac01417 	ldw	r11,80(sp)
   21460:	dc001317 	ldw	r16,76(sp)
   21464:	dc801217 	ldw	r18,72(sp)
   21468:	10800044 	addi	r2,r2,1
   2146c:	19c7883a 	add	r3,r3,r7
   21470:	d8801d15 	stw	r2,116(sp)
   21474:	43000015 	stw	r12,0(r8)
   21478:	41c00115 	stw	r7,4(r8)
   2147c:	d8c01e15 	stw	r3,120(sp)
   21480:	10800208 	cmpgei	r2,r2,8
   21484:	1001d61e 	bne	r2,zero,21be0 <___vfprintf_internal_r+0x1a10>
   21488:	42000204 	addi	r8,r8,8
   2148c:	003cf806 	br	20870 <___vfprintf_internal_r+0x6a0>
   21490:	d9000517 	ldw	r4,20(sp)
   21494:	d9801c04 	addi	r6,sp,112
   21498:	980b883a 	mov	r5,r19
   2149c:	dac01015 	stw	r11,64(sp)
   214a0:	db400f15 	stw	r13,60(sp)
   214a4:	db800e15 	stw	r14,56(sp)
   214a8:	00269980 	call	26998 <__sprint_r>
   214ac:	103c271e 	bne	r2,zero,2054c <___vfprintf_internal_r+0x37c>
   214b0:	d8c01e17 	ldw	r3,120(sp)
   214b4:	b811883a 	mov	r8,r23
   214b8:	dac01017 	ldw	r11,64(sp)
   214bc:	db400f17 	ldw	r13,60(sp)
   214c0:	db800e17 	ldw	r14,56(sp)
   214c4:	003cf806 	br	208a8 <___vfprintf_internal_r+0x6d8>
   214c8:	d9000517 	ldw	r4,20(sp)
   214cc:	d9801c04 	addi	r6,sp,112
   214d0:	980b883a 	mov	r5,r19
   214d4:	dac00f15 	stw	r11,60(sp)
   214d8:	db400e15 	stw	r13,56(sp)
   214dc:	00269980 	call	26998 <__sprint_r>
   214e0:	103c1a1e 	bne	r2,zero,2054c <___vfprintf_internal_r+0x37c>
   214e4:	d8c01e17 	ldw	r3,120(sp)
   214e8:	b811883a 	mov	r8,r23
   214ec:	dac00f17 	ldw	r11,60(sp)
   214f0:	db400e17 	ldw	r13,56(sp)
   214f4:	003cf906 	br	208dc <___vfprintf_internal_r+0x70c>
   214f8:	d9000c17 	ldw	r4,48(sp)
   214fc:	b823883a 	mov	r17,r23
   21500:	a88003cc 	andi	r2,r21,15
   21504:	a006973a 	slli	r3,r20,28
   21508:	2085883a 	add	r2,r4,r2
   2150c:	a82ad13a 	srli	r21,r21,4
   21510:	10800003 	ldbu	r2,0(r2)
   21514:	a028d13a 	srli	r20,r20,4
   21518:	8c7fffc4 	addi	r17,r17,-1
   2151c:	1d6ab03a 	or	r21,r3,r21
   21520:	88800005 	stb	r2,0(r17)
   21524:	ad04b03a 	or	r2,r21,r20
   21528:	103ff51e 	bne	r2,zero,21500 <___vfprintf_internal_r+0x1330>
   2152c:	bc69c83a 	sub	r20,r23,r17
   21530:	6025883a 	mov	r18,r12
   21534:	003e3d06 	br	20e2c <___vfprintf_internal_r+0xc5c>
   21538:	d9001617 	ldw	r4,88(sp)
   2153c:	01019a0e 	bge	zero,r4,21ba8 <___vfprintf_internal_r+0x19d8>
   21540:	d8800717 	ldw	r2,28(sp)
   21544:	d9000817 	ldw	r4,32(sp)
   21548:	1039883a 	mov	fp,r2
   2154c:	20812816 	blt	r4,r2,219f0 <___vfprintf_internal_r+0x1820>
   21550:	07000a0e 	bge	zero,fp,2157c <___vfprintf_internal_r+0x13ac>
   21554:	d8801d17 	ldw	r2,116(sp)
   21558:	1f07883a 	add	r3,r3,fp
   2155c:	44400015 	stw	r17,0(r8)
   21560:	10800044 	addi	r2,r2,1
   21564:	d8801d15 	stw	r2,116(sp)
   21568:	47000115 	stw	fp,4(r8)
   2156c:	d8c01e15 	stw	r3,120(sp)
   21570:	10800208 	cmpgei	r2,r2,8
   21574:	1002de1e 	bne	r2,zero,220f0 <___vfprintf_internal_r+0x1f20>
   21578:	42000204 	addi	r8,r8,8
   2157c:	e0014116 	blt	fp,zero,21a84 <___vfprintf_internal_r+0x18b4>
   21580:	d8800717 	ldw	r2,28(sp)
   21584:	1739c83a 	sub	fp,r2,fp
   21588:	07014816 	blt	zero,fp,21aac <___vfprintf_internal_r+0x18dc>
   2158c:	d9001617 	ldw	r4,88(sp)
   21590:	d8800817 	ldw	r2,32(sp)
   21594:	2081190e 	bge	r4,r2,219fc <___vfprintf_internal_r+0x182c>
   21598:	d8800d17 	ldw	r2,52(sp)
   2159c:	d9400b17 	ldw	r5,44(sp)
   215a0:	40800015 	stw	r2,0(r8)
   215a4:	d8801d17 	ldw	r2,116(sp)
   215a8:	1947883a 	add	r3,r3,r5
   215ac:	41400115 	stw	r5,4(r8)
   215b0:	10800044 	addi	r2,r2,1
   215b4:	d8801d15 	stw	r2,116(sp)
   215b8:	d8c01e15 	stw	r3,120(sp)
   215bc:	10800208 	cmpgei	r2,r2,8
   215c0:	1002651e 	bne	r2,zero,21f58 <___vfprintf_internal_r+0x1d88>
   215c4:	42000204 	addi	r8,r8,8
   215c8:	d8800817 	ldw	r2,32(sp)
   215cc:	d9400717 	ldw	r5,28(sp)
   215d0:	1105c83a 	sub	r2,r2,r4
   215d4:	29015e0e 	bge	r5,r4,21b50 <___vfprintf_internal_r+0x1980>
   215d8:	1039883a 	mov	fp,r2
   215dc:	07000c0e 	bge	zero,fp,21610 <___vfprintf_internal_r+0x1440>
   215e0:	d9000717 	ldw	r4,28(sp)
   215e4:	1f07883a 	add	r3,r3,fp
   215e8:	47000115 	stw	fp,4(r8)
   215ec:	8923883a 	add	r17,r17,r4
   215f0:	d9001d17 	ldw	r4,116(sp)
   215f4:	44400015 	stw	r17,0(r8)
   215f8:	d8c01e15 	stw	r3,120(sp)
   215fc:	21000044 	addi	r4,r4,1
   21600:	d9001d15 	stw	r4,116(sp)
   21604:	21000208 	cmpgei	r4,r4,8
   21608:	2002c41e 	bne	r4,zero,2211c <___vfprintf_internal_r+0x1f4c>
   2160c:	42000204 	addi	r8,r8,8
   21610:	e000010e 	bge	fp,zero,21618 <___vfprintf_internal_r+0x1448>
   21614:	0039883a 	mov	fp,zero
   21618:	1739c83a 	sub	fp,r2,fp
   2161c:	073cbf0e 	bge	zero,fp,2091c <___vfprintf_internal_r+0x74c>
   21620:	030000f4 	movhi	r12,3
   21624:	e1000450 	cmplti	r4,fp,17
   21628:	63390684 	addi	r12,r12,-7142
   2162c:	d8801d17 	ldw	r2,116(sp)
   21630:	2002401e 	bne	r4,zero,21f34 <___vfprintf_internal_r+0x1d64>
   21634:	dc000715 	stw	r16,28(sp)
   21638:	05000404 	movi	r20,16
   2163c:	dc400517 	ldw	r17,20(sp)
   21640:	6021883a 	mov	r16,r12
   21644:	00000406 	br	21658 <___vfprintf_internal_r+0x1488>
   21648:	42000204 	addi	r8,r8,8
   2164c:	e73ffc04 	addi	fp,fp,-16
   21650:	e1000448 	cmpgei	r4,fp,17
   21654:	20023526 	beq	r4,zero,21f2c <___vfprintf_internal_r+0x1d5c>
   21658:	10800044 	addi	r2,r2,1
   2165c:	18c00404 	addi	r3,r3,16
   21660:	44000015 	stw	r16,0(r8)
   21664:	45000115 	stw	r20,4(r8)
   21668:	d8c01e15 	stw	r3,120(sp)
   2166c:	d8801d15 	stw	r2,116(sp)
   21670:	11000208 	cmpgei	r4,r2,8
   21674:	203ff426 	beq	r4,zero,21648 <___vfprintf_internal_r+0x1478>
   21678:	d9801c04 	addi	r6,sp,112
   2167c:	980b883a 	mov	r5,r19
   21680:	8809883a 	mov	r4,r17
   21684:	00269980 	call	26998 <__sprint_r>
   21688:	103bb01e 	bne	r2,zero,2054c <___vfprintf_internal_r+0x37c>
   2168c:	d8c01e17 	ldw	r3,120(sp)
   21690:	d8801d17 	ldw	r2,116(sp)
   21694:	b811883a 	mov	r8,r23
   21698:	003fec06 	br	2164c <___vfprintf_internal_r+0x147c>
   2169c:	9080004c 	andi	r2,r18,1
   216a0:	103f031e 	bne	r2,zero,212b0 <___vfprintf_internal_r+0x10e0>
   216a4:	00800044 	movi	r2,1
   216a8:	dd001d15 	stw	r20,116(sp)
   216ac:	44400015 	stw	r17,0(r8)
   216b0:	40800115 	stw	r2,4(r8)
   216b4:	d8c01e15 	stw	r3,120(sp)
   216b8:	a5000208 	cmpgei	r20,r20,8
   216bc:	a000d71e 	bne	r20,zero,21a1c <___vfprintf_internal_r+0x184c>
   216c0:	52800084 	addi	r10,r10,2
   216c4:	42000404 	addi	r8,r8,16
   216c8:	003f2b06 	br	21378 <___vfprintf_internal_r+0x11a8>
   216cc:	02ff2a0e 	bge	zero,r11,21378 <___vfprintf_internal_r+0x11a8>
   216d0:	58800450 	cmplti	r2,r11,17
   216d4:	030000f4 	movhi	r12,3
   216d8:	1002fe1e 	bne	r2,zero,222d4 <___vfprintf_internal_r+0x2104>
   216dc:	63390684 	addi	r12,r12,-7142
   216e0:	dd400715 	stw	r21,28(sp)
   216e4:	dc800e15 	stw	r18,56(sp)
   216e8:	e005883a 	mov	r2,fp
   216ec:	04400404 	movi	r17,16
   216f0:	b039883a 	mov	fp,r22
   216f4:	5825883a 	mov	r18,r11
   216f8:	802d883a 	mov	r22,r16
   216fc:	602b883a 	mov	r21,r12
   21700:	dc000517 	ldw	r16,20(sp)
   21704:	6829883a 	mov	r20,r13
   21708:	00000506 	br	21720 <___vfprintf_internal_r+0x1550>
   2170c:	10800204 	addi	r2,r2,8
   21710:	94bffc04 	addi	r18,r18,-16
   21714:	91000448 	cmpgei	r4,r18,17
   21718:	20018a26 	beq	r4,zero,21d44 <___vfprintf_internal_r+0x1b74>
   2171c:	a5000044 	addi	r20,r20,1
   21720:	18c00404 	addi	r3,r3,16
   21724:	15400015 	stw	r21,0(r2)
   21728:	14400115 	stw	r17,4(r2)
   2172c:	d8c01e15 	stw	r3,120(sp)
   21730:	dd001d15 	stw	r20,116(sp)
   21734:	a1000208 	cmpgei	r4,r20,8
   21738:	203ff426 	beq	r4,zero,2170c <___vfprintf_internal_r+0x153c>
   2173c:	d9801c04 	addi	r6,sp,112
   21740:	980b883a 	mov	r5,r19
   21744:	8009883a 	mov	r4,r16
   21748:	00269980 	call	26998 <__sprint_r>
   2174c:	103b7f1e 	bne	r2,zero,2054c <___vfprintf_internal_r+0x37c>
   21750:	dd001d17 	ldw	r20,116(sp)
   21754:	d8c01e17 	ldw	r3,120(sp)
   21758:	b805883a 	mov	r2,r23
   2175c:	003fec06 	br	21710 <___vfprintf_internal_r+0x1540>
   21760:	d9000517 	ldw	r4,20(sp)
   21764:	d9801c04 	addi	r6,sp,112
   21768:	980b883a 	mov	r5,r19
   2176c:	00269980 	call	26998 <__sprint_r>
   21770:	103b761e 	bne	r2,zero,2054c <___vfprintf_internal_r+0x37c>
   21774:	d8c01e17 	ldw	r3,120(sp)
   21778:	b811883a 	mov	r8,r23
   2177c:	003c5b06 	br	208ec <___vfprintf_internal_r+0x71c>
   21780:	0029883a 	mov	r20,zero
   21784:	003bdc06 	br	206f8 <___vfprintf_internal_r+0x528>
   21788:	b023883a 	mov	r17,r22
   2178c:	003ae306 	br	2031c <___vfprintf_internal_r+0x14c>
   21790:	b823883a 	mov	r17,r23
   21794:	003da506 	br	20e2c <___vfprintf_internal_r+0xc5c>
   21798:	d9000917 	ldw	r4,36(sp)
   2179c:	d9400a17 	ldw	r5,40(sp)
   217a0:	da000f15 	stw	r8,60(sp)
   217a4:	200d883a 	mov	r6,r4
   217a8:	280f883a 	mov	r7,r5
   217ac:	dac00e15 	stw	r11,56(sp)
   217b0:	db000715 	stw	r12,28(sp)
   217b4:	002c87c0 	call	2c87c <__unorddf2>
   217b8:	db000717 	ldw	r12,28(sp)
   217bc:	dac00e17 	ldw	r11,56(sp)
   217c0:	da000f17 	ldw	r8,60(sp)
   217c4:	1002b21e 	bne	r2,zero,22290 <___vfprintf_internal_r+0x20c0>
   217c8:	00fff7c4 	movi	r3,-33
   217cc:	e0c6703a 	and	r3,fp,r3
   217d0:	58bfffe0 	cmpeqi	r2,r11,-1
   217d4:	d8c00715 	stw	r3,28(sp)
   217d8:	10024e1e 	bne	r2,zero,22114 <___vfprintf_internal_r+0x1f44>
   217dc:	188011d8 	cmpnei	r2,r3,71
   217e0:	10020026 	beq	r2,zero,21fe4 <___vfprintf_internal_r+0x1e14>
   217e4:	d8800a17 	ldw	r2,40(sp)
   217e8:	64804014 	ori	r18,r12,256
   217ec:	1001e316 	blt	r2,zero,21f7c <___vfprintf_internal_r+0x1dac>
   217f0:	dd400a17 	ldw	r21,40(sp)
   217f4:	d8000e05 	stb	zero,56(sp)
   217f8:	e08019a0 	cmpeqi	r2,fp,102
   217fc:	d8800f15 	stw	r2,60(sp)
   21800:	1001771e 	bne	r2,zero,21de0 <___vfprintf_internal_r+0x1c10>
   21804:	e08011a0 	cmpeqi	r2,fp,70
   21808:	1001751e 	bne	r2,zero,21de0 <___vfprintf_internal_r+0x1c10>
   2180c:	d8800717 	ldw	r2,28(sp)
   21810:	da001215 	stw	r8,72(sp)
   21814:	db001015 	stw	r12,64(sp)
   21818:	10801158 	cmpnei	r2,r2,69
   2181c:	10020726 	beq	r2,zero,2203c <___vfprintf_internal_r+0x1e6c>
   21820:	d8801a04 	addi	r2,sp,104
   21824:	d8800315 	stw	r2,12(sp)
   21828:	d9400917 	ldw	r5,36(sp)
   2182c:	d8801704 	addi	r2,sp,92
   21830:	d9000517 	ldw	r4,20(sp)
   21834:	d8800215 	stw	r2,8(sp)
   21838:	d8801604 	addi	r2,sp,88
   2183c:	dac00015 	stw	r11,0(sp)
   21840:	d8800115 	stw	r2,4(sp)
   21844:	01c00084 	movi	r7,2
   21848:	a80d883a 	mov	r6,r21
   2184c:	dac00815 	stw	r11,32(sp)
   21850:	00227c40 	call	227c4 <_dtoa_r>
   21854:	dac00817 	ldw	r11,32(sp)
   21858:	1023883a 	mov	r17,r2
   2185c:	e08019d8 	cmpnei	r2,fp,103
   21860:	db001017 	ldw	r12,64(sp)
   21864:	da001217 	ldw	r8,72(sp)
   21868:	5829883a 	mov	r20,r11
   2186c:	1002051e 	bne	r2,zero,22084 <___vfprintf_internal_r+0x1eb4>
   21870:	6080004c 	andi	r2,r12,1
   21874:	1002051e 	bne	r2,zero,2208c <___vfprintf_internal_r+0x1ebc>
   21878:	d8c01617 	ldw	r3,88(sp)
   2187c:	d8800717 	ldw	r2,28(sp)
   21880:	d8c00715 	stw	r3,28(sp)
   21884:	d8c01a17 	ldw	r3,104(sp)
   21888:	108011e0 	cmpeqi	r2,r2,71
   2188c:	1c47c83a 	sub	r3,r3,r17
   21890:	d8c00815 	stw	r3,32(sp)
   21894:	10000526 	beq	r2,zero,218ac <___vfprintf_internal_r+0x16dc>
   21898:	d8c00717 	ldw	r3,28(sp)
   2189c:	18bfff50 	cmplti	r2,r3,-3
   218a0:	1000011e 	bne	r2,zero,218a8 <___vfprintf_internal_r+0x16d8>
   218a4:	58c2070e 	bge	r11,r3,220c4 <___vfprintf_internal_r+0x1ef4>
   218a8:	e73fff84 	addi	fp,fp,-2
   218ac:	d8800717 	ldw	r2,28(sp)
   218b0:	df001845 	stb	fp,97(sp)
   218b4:	153fffc4 	addi	r20,r2,-1
   218b8:	dd001615 	stw	r20,88(sp)
   218bc:	a0027c16 	blt	r20,zero,222b0 <___vfprintf_internal_r+0x20e0>
   218c0:	00800ac4 	movi	r2,43
   218c4:	d8801885 	stb	r2,98(sp)
   218c8:	a0800290 	cmplti	r2,r20,10
   218cc:	10025b1e 	bne	r2,zero,2223c <___vfprintf_internal_r+0x206c>
   218d0:	dc000f15 	stw	r16,60(sp)
   218d4:	dd401bc4 	addi	r21,sp,111
   218d8:	a021883a 	mov	r16,r20
   218dc:	db000715 	stw	r12,28(sp)
   218e0:	9829883a 	mov	r20,r19
   218e4:	4027883a 	mov	r19,r8
   218e8:	00000206 	br	218f4 <___vfprintf_internal_r+0x1724>
   218ec:	202b883a 	mov	r21,r4
   218f0:	1021883a 	mov	r16,r2
   218f4:	8009883a 	mov	r4,r16
   218f8:	01400284 	movi	r5,10
   218fc:	002a0940 	call	2a094 <__modsi3>
   21900:	10800c04 	addi	r2,r2,48
   21904:	8009883a 	mov	r4,r16
   21908:	a8bfffc5 	stb	r2,-1(r21)
   2190c:	01400284 	movi	r5,10
   21910:	002a0140 	call	2a014 <__divsi3>
   21914:	80c01908 	cmpgei	r3,r16,100
   21918:	a93fffc4 	addi	r4,r21,-1
   2191c:	183ff31e 	bne	r3,zero,218ec <___vfprintf_internal_r+0x171c>
   21920:	10800c04 	addi	r2,r2,48
   21924:	20bfffc5 	stb	r2,-1(r4)
   21928:	a8ffff84 	addi	r3,r21,-2
   2192c:	d9001bc4 	addi	r4,sp,111
   21930:	9811883a 	mov	r8,r19
   21934:	db000717 	ldw	r12,28(sp)
   21938:	dc000f17 	ldw	r16,60(sp)
   2193c:	a027883a 	mov	r19,r20
   21940:	1902762e 	bgeu	r3,r4,2231c <___vfprintf_internal_r+0x214c>
   21944:	d90018c4 	addi	r4,sp,99
   21948:	00000106 	br	21950 <___vfprintf_internal_r+0x1780>
   2194c:	18800003 	ldbu	r2,0(r3)
   21950:	21000044 	addi	r4,r4,1
   21954:	20bfffc5 	stb	r2,-1(r4)
   21958:	18c00044 	addi	r3,r3,1
   2195c:	d8801bc4 	addi	r2,sp,111
   21960:	18bffa1e 	bne	r3,r2,2194c <___vfprintf_internal_r+0x177c>
   21964:	d8801c44 	addi	r2,sp,113
   21968:	d8c018c4 	addi	r3,sp,99
   2196c:	1545c83a 	sub	r2,r2,r21
   21970:	1885883a 	add	r2,r3,r2
   21974:	d8c01844 	addi	r3,sp,97
   21978:	10c5c83a 	sub	r2,r2,r3
   2197c:	d8801115 	stw	r2,68(sp)
   21980:	d8c00817 	ldw	r3,32(sp)
   21984:	d9001117 	ldw	r4,68(sp)
   21988:	18800088 	cmpgei	r2,r3,2
   2198c:	1929883a 	add	r20,r3,r4
   21990:	10024c26 	beq	r2,zero,222c4 <___vfprintf_internal_r+0x20f4>
   21994:	d8800b17 	ldw	r2,44(sp)
   21998:	a0a9883a 	add	r20,r20,r2
   2199c:	a02b883a 	mov	r21,r20
   219a0:	a000010e 	bge	r20,zero,219a8 <___vfprintf_internal_r+0x17d8>
   219a4:	002b883a 	mov	r21,zero
   219a8:	d8000715 	stw	zero,28(sp)
   219ac:	00014206 	br	21eb8 <___vfprintf_internal_r+0x1ce8>
   219b0:	00800c04 	movi	r2,48
   219b4:	d8801585 	stb	r2,86(sp)
   219b8:	df0015c5 	stb	fp,87(sp)
   219bc:	63000094 	ori	r12,r12,2
   219c0:	00800084 	movi	r2,2
   219c4:	003ce106 	br	20d4c <___vfprintf_internal_r+0xb7c>
   219c8:	d9400417 	ldw	r5,16(sp)
   219cc:	20800017 	ldw	r2,0(r4)
   219d0:	d8c00615 	stw	r3,24(sp)
   219d4:	2809d7fa 	srai	r4,r5,31
   219d8:	11400015 	stw	r5,0(r2)
   219dc:	11000115 	stw	r4,4(r2)
   219e0:	003a3006 	br	202a4 <___vfprintf_internal_r+0xd4>
   219e4:	0421c83a 	sub	r16,zero,r16
   219e8:	d8800615 	stw	r2,24(sp)
   219ec:	003b1506 	br	20644 <___vfprintf_internal_r+0x474>
   219f0:	2039883a 	mov	fp,r4
   219f4:	073ed716 	blt	zero,fp,21554 <___vfprintf_internal_r+0x1384>
   219f8:	003ee006 	br	2157c <___vfprintf_internal_r+0x13ac>
   219fc:	9080004c 	andi	r2,r18,1
   21a00:	103ee51e 	bne	r2,zero,21598 <___vfprintf_internal_r+0x13c8>
   21a04:	d8800817 	ldw	r2,32(sp)
   21a08:	d9400717 	ldw	r5,28(sp)
   21a0c:	1105c83a 	sub	r2,r2,r4
   21a10:	29004f0e 	bge	r5,r4,21b50 <___vfprintf_internal_r+0x1980>
   21a14:	1039883a 	mov	fp,r2
   21a18:	003efd06 	br	21610 <___vfprintf_internal_r+0x1440>
   21a1c:	d9000517 	ldw	r4,20(sp)
   21a20:	d9801c04 	addi	r6,sp,112
   21a24:	980b883a 	mov	r5,r19
   21a28:	00269980 	call	26998 <__sprint_r>
   21a2c:	103ac71e 	bne	r2,zero,2054c <___vfprintf_internal_r+0x37c>
   21a30:	da801d17 	ldw	r10,116(sp)
   21a34:	d8c01e17 	ldw	r3,120(sp)
   21a38:	da002b04 	addi	r8,sp,172
   21a3c:	52800044 	addi	r10,r10,1
   21a40:	b839883a 	mov	fp,r23
   21a44:	003e4c06 	br	21378 <___vfprintf_internal_r+0x11a8>
   21a48:	b7000043 	ldbu	fp,1(r22)
   21a4c:	63000814 	ori	r12,r12,32
   21a50:	b5800044 	addi	r22,r22,1
   21a54:	e2803fcc 	andi	r10,fp,255
   21a58:	5280201c 	xori	r10,r10,128
   21a5c:	52bfe004 	addi	r10,r10,-128
   21a60:	003a3606 	br	2033c <___vfprintf_internal_r+0x16c>
   21a64:	d9000517 	ldw	r4,20(sp)
   21a68:	d9801c04 	addi	r6,sp,112
   21a6c:	980b883a 	mov	r5,r19
   21a70:	00269980 	call	26998 <__sprint_r>
   21a74:	103ab51e 	bne	r2,zero,2054c <___vfprintf_internal_r+0x37c>
   21a78:	d8c01e17 	ldw	r3,120(sp)
   21a7c:	b811883a 	mov	r8,r23
   21a80:	003d4506 	br	20f98 <___vfprintf_internal_r+0xdc8>
   21a84:	0039883a 	mov	fp,zero
   21a88:	003ebd06 	br	21580 <___vfprintf_internal_r+0x13b0>
   21a8c:	588001f0 	cmpltui	r2,r11,7
   21a90:	5829883a 	mov	r20,r11
   21a94:	10013d26 	beq	r2,zero,21f8c <___vfprintf_internal_r+0x1dbc>
   21a98:	044000f4 	movhi	r17,3
   21a9c:	a02b883a 	mov	r21,r20
   21aa0:	dc800615 	stw	r18,24(sp)
   21aa4:	8c790404 	addi	r17,r17,-7152
   21aa8:	003b6606 	br	20844 <___vfprintf_internal_r+0x674>
   21aac:	030000f4 	movhi	r12,3
   21ab0:	e1000450 	cmplti	r4,fp,17
   21ab4:	63390684 	addi	r12,r12,-7142
   21ab8:	d8801d17 	ldw	r2,116(sp)
   21abc:	20010d1e 	bne	r4,zero,21ef4 <___vfprintf_internal_r+0x1d24>
   21ac0:	dc400e15 	stw	r17,56(sp)
   21ac4:	dc800f15 	stw	r18,60(sp)
   21ac8:	e023883a 	mov	r17,fp
   21acc:	05000404 	movi	r20,16
   21ad0:	b039883a 	mov	fp,r22
   21ad4:	6025883a 	mov	r18,r12
   21ad8:	802d883a 	mov	r22,r16
   21adc:	dc000517 	ldw	r16,20(sp)
   21ae0:	00000406 	br	21af4 <___vfprintf_internal_r+0x1924>
   21ae4:	42000204 	addi	r8,r8,8
   21ae8:	8c7ffc04 	addi	r17,r17,-16
   21aec:	89000448 	cmpgei	r4,r17,17
   21af0:	2000fa26 	beq	r4,zero,21edc <___vfprintf_internal_r+0x1d0c>
   21af4:	10800044 	addi	r2,r2,1
   21af8:	18c00404 	addi	r3,r3,16
   21afc:	44800015 	stw	r18,0(r8)
   21b00:	45000115 	stw	r20,4(r8)
   21b04:	d8c01e15 	stw	r3,120(sp)
   21b08:	d8801d15 	stw	r2,116(sp)
   21b0c:	11000208 	cmpgei	r4,r2,8
   21b10:	203ff426 	beq	r4,zero,21ae4 <___vfprintf_internal_r+0x1914>
   21b14:	d9801c04 	addi	r6,sp,112
   21b18:	980b883a 	mov	r5,r19
   21b1c:	8009883a 	mov	r4,r16
   21b20:	00269980 	call	26998 <__sprint_r>
   21b24:	103a891e 	bne	r2,zero,2054c <___vfprintf_internal_r+0x37c>
   21b28:	d8c01e17 	ldw	r3,120(sp)
   21b2c:	d8801d17 	ldw	r2,116(sp)
   21b30:	b811883a 	mov	r8,r23
   21b34:	003fec06 	br	21ae8 <___vfprintf_internal_r+0x1918>
   21b38:	d8800617 	ldw	r2,24(sp)
   21b3c:	10800017 	ldw	r2,0(r2)
   21b40:	d8c00615 	stw	r3,24(sp)
   21b44:	d8c00417 	ldw	r3,16(sp)
   21b48:	10c00015 	stw	r3,0(r2)
   21b4c:	0039d506 	br	202a4 <___vfprintf_internal_r+0xd4>
   21b50:	d9000817 	ldw	r4,32(sp)
   21b54:	d9400717 	ldw	r5,28(sp)
   21b58:	2179c83a 	sub	fp,r4,r5
   21b5c:	003e9f06 	br	215dc <___vfprintf_internal_r+0x140c>
   21b60:	d9000517 	ldw	r4,20(sp)
   21b64:	d9801c04 	addi	r6,sp,112
   21b68:	980b883a 	mov	r5,r19
   21b6c:	00269980 	call	26998 <__sprint_r>
   21b70:	103a761e 	bne	r2,zero,2054c <___vfprintf_internal_r+0x37c>
   21b74:	d8c01e17 	ldw	r3,120(sp)
   21b78:	dd001d17 	ldw	r20,116(sp)
   21b7c:	b839883a 	mov	fp,r23
   21b80:	003ddd06 	br	212f8 <___vfprintf_internal_r+0x1128>
   21b84:	d9000517 	ldw	r4,20(sp)
   21b88:	d9801c04 	addi	r6,sp,112
   21b8c:	980b883a 	mov	r5,r19
   21b90:	00269980 	call	26998 <__sprint_r>
   21b94:	103a6d1e 	bne	r2,zero,2054c <___vfprintf_internal_r+0x37c>
   21b98:	d8c01e17 	ldw	r3,120(sp)
   21b9c:	dd001d17 	ldw	r20,116(sp)
   21ba0:	b839883a 	mov	fp,r23
   21ba4:	003dc906 	br	212cc <___vfprintf_internal_r+0x10fc>
   21ba8:	d8801d17 	ldw	r2,116(sp)
   21bac:	014000f4 	movhi	r5,3
   21bb0:	29790604 	addi	r5,r5,-7144
   21bb4:	10800044 	addi	r2,r2,1
   21bb8:	18c00044 	addi	r3,r3,1
   21bbc:	41400015 	stw	r5,0(r8)
   21bc0:	01400044 	movi	r5,1
   21bc4:	d8801d15 	stw	r2,116(sp)
   21bc8:	41400115 	stw	r5,4(r8)
   21bcc:	d8c01e15 	stw	r3,120(sp)
   21bd0:	10800208 	cmpgei	r2,r2,8
   21bd4:	103d851e 	bne	r2,zero,211ec <___vfprintf_internal_r+0x101c>
   21bd8:	42000204 	addi	r8,r8,8
   21bdc:	003d8b06 	br	2120c <___vfprintf_internal_r+0x103c>
   21be0:	d9000517 	ldw	r4,20(sp)
   21be4:	d9801c04 	addi	r6,sp,112
   21be8:	980b883a 	mov	r5,r19
   21bec:	dac01015 	stw	r11,64(sp)
   21bf0:	db400f15 	stw	r13,60(sp)
   21bf4:	db800e15 	stw	r14,56(sp)
   21bf8:	00269980 	call	26998 <__sprint_r>
   21bfc:	103a531e 	bne	r2,zero,2054c <___vfprintf_internal_r+0x37c>
   21c00:	d8c01e17 	ldw	r3,120(sp)
   21c04:	b811883a 	mov	r8,r23
   21c08:	dac01017 	ldw	r11,64(sp)
   21c0c:	db400f17 	ldw	r13,60(sp)
   21c10:	db800e17 	ldw	r14,56(sp)
   21c14:	003b1606 	br	20870 <___vfprintf_internal_r+0x6a0>
   21c18:	d9000517 	ldw	r4,20(sp)
   21c1c:	d9801c04 	addi	r6,sp,112
   21c20:	980b883a 	mov	r5,r19
   21c24:	00269980 	call	26998 <__sprint_r>
   21c28:	103a481e 	bne	r2,zero,2054c <___vfprintf_internal_r+0x37c>
   21c2c:	b811883a 	mov	r8,r23
   21c30:	003cc506 	br	20f48 <___vfprintf_internal_r+0xd78>
   21c34:	d9000517 	ldw	r4,20(sp)
   21c38:	d9801c04 	addi	r6,sp,112
   21c3c:	980b883a 	mov	r5,r19
   21c40:	dac00e15 	stw	r11,56(sp)
   21c44:	00269980 	call	26998 <__sprint_r>
   21c48:	103a401e 	bne	r2,zero,2054c <___vfprintf_internal_r+0x37c>
   21c4c:	d8c01e17 	ldw	r3,120(sp)
   21c50:	b811883a 	mov	r8,r23
   21c54:	dac00e17 	ldw	r11,56(sp)
   21c58:	003b2206 	br	208e4 <___vfprintf_internal_r+0x714>
   21c5c:	10c00060 	cmpeqi	r3,r2,1
   21c60:	9019883a 	mov	r12,r18
   21c64:	183beb26 	beq	r3,zero,20c14 <___vfprintf_internal_r+0xa44>
   21c68:	003c6b06 	br	20e18 <___vfprintf_internal_r+0xc48>
   21c6c:	d8800d17 	ldw	r2,52(sp)
   21c70:	d9400b17 	ldw	r5,44(sp)
   21c74:	40800015 	stw	r2,0(r8)
   21c78:	d8801d17 	ldw	r2,116(sp)
   21c7c:	28c7883a 	add	r3,r5,r3
   21c80:	41400115 	stw	r5,4(r8)
   21c84:	10800044 	addi	r2,r2,1
   21c88:	d8c01e15 	stw	r3,120(sp)
   21c8c:	d8801d15 	stw	r2,116(sp)
   21c90:	11400208 	cmpgei	r5,r2,8
   21c94:	2800d61e 	bne	r5,zero,21ff0 <___vfprintf_internal_r+0x1e20>
   21c98:	42000204 	addi	r8,r8,8
   21c9c:	203d6c0e 	bge	r4,zero,21250 <___vfprintf_internal_r+0x1080>
   21ca0:	030000f4 	movhi	r12,3
   21ca4:	217ffc08 	cmpgei	r5,r4,-16
   21ca8:	63390684 	addi	r12,r12,-7142
   21cac:	0129c83a 	sub	r20,zero,r4
   21cb0:	28014e1e 	bne	r5,zero,221ec <___vfprintf_internal_r+0x201c>
   21cb4:	8009883a 	mov	r4,r16
   21cb8:	dc400715 	stw	r17,28(sp)
   21cbc:	a021883a 	mov	r16,r20
   21cc0:	07000404 	movi	fp,16
   21cc4:	6023883a 	mov	r17,r12
   21cc8:	2029883a 	mov	r20,r4
   21ccc:	00000406 	br	21ce0 <___vfprintf_internal_r+0x1b10>
   21cd0:	42000204 	addi	r8,r8,8
   21cd4:	843ffc04 	addi	r16,r16,-16
   21cd8:	81000448 	cmpgei	r4,r16,17
   21cdc:	20013e26 	beq	r4,zero,221d8 <___vfprintf_internal_r+0x2008>
   21ce0:	10800044 	addi	r2,r2,1
   21ce4:	18c00404 	addi	r3,r3,16
   21ce8:	44400015 	stw	r17,0(r8)
   21cec:	47000115 	stw	fp,4(r8)
   21cf0:	d8c01e15 	stw	r3,120(sp)
   21cf4:	d8801d15 	stw	r2,116(sp)
   21cf8:	11000208 	cmpgei	r4,r2,8
   21cfc:	203ff426 	beq	r4,zero,21cd0 <___vfprintf_internal_r+0x1b00>
   21d00:	d9000517 	ldw	r4,20(sp)
   21d04:	d9801c04 	addi	r6,sp,112
   21d08:	980b883a 	mov	r5,r19
   21d0c:	00269980 	call	26998 <__sprint_r>
   21d10:	103a0e1e 	bne	r2,zero,2054c <___vfprintf_internal_r+0x37c>
   21d14:	d8c01e17 	ldw	r3,120(sp)
   21d18:	d8801d17 	ldw	r2,116(sp)
   21d1c:	b811883a 	mov	r8,r23
   21d20:	003fec06 	br	21cd4 <___vfprintf_internal_r+0x1b04>
   21d24:	8809883a 	mov	r4,r17
   21d28:	002680c0 	call	2680c <strlen>
   21d2c:	1029883a 	mov	r20,r2
   21d30:	102b883a 	mov	r21,r2
   21d34:	dc800615 	stw	r18,24(sp)
   21d38:	db000717 	ldw	r12,28(sp)
   21d3c:	da000e17 	ldw	r8,56(sp)
   21d40:	003ac006 	br	20844 <___vfprintf_internal_r+0x674>
   21d44:	9017883a 	mov	r11,r18
   21d48:	a819883a 	mov	r12,r21
   21d4c:	dc800e17 	ldw	r18,56(sp)
   21d50:	dd400717 	ldw	r21,28(sp)
   21d54:	b021883a 	mov	r16,r22
   21d58:	a2800044 	addi	r10,r20,1
   21d5c:	e02d883a 	mov	r22,fp
   21d60:	1039883a 	mov	fp,r2
   21d64:	10800204 	addi	r2,r2,8
   21d68:	1ac7883a 	add	r3,r3,r11
   21d6c:	e3000015 	stw	r12,0(fp)
   21d70:	e2c00115 	stw	r11,4(fp)
   21d74:	d8c01e15 	stw	r3,120(sp)
   21d78:	da801d15 	stw	r10,116(sp)
   21d7c:	51000208 	cmpgei	r4,r10,8
   21d80:	203f261e 	bne	r4,zero,21a1c <___vfprintf_internal_r+0x184c>
   21d84:	52800044 	addi	r10,r10,1
   21d88:	12000204 	addi	r8,r2,8
   21d8c:	1039883a 	mov	fp,r2
   21d90:	003d7906 	br	21378 <___vfprintf_internal_r+0x11a8>
   21d94:	8019883a 	mov	r12,r16
   21d98:	dc000717 	ldw	r16,28(sp)
   21d9c:	10800044 	addi	r2,r2,1
   21da0:	1c47883a 	add	r3,r3,r17
   21da4:	d8801d15 	stw	r2,116(sp)
   21da8:	43000015 	stw	r12,0(r8)
   21dac:	44400115 	stw	r17,4(r8)
   21db0:	d8c01e15 	stw	r3,120(sp)
   21db4:	10800208 	cmpgei	r2,r2,8
   21db8:	103ad726 	beq	r2,zero,20918 <___vfprintf_internal_r+0x748>
   21dbc:	003d2d06 	br	21274 <___vfprintf_internal_r+0x10a4>
   21dc0:	d8800615 	stw	r2,24(sp)
   21dc4:	0029883a 	mov	r20,zero
   21dc8:	0005883a 	mov	r2,zero
   21dcc:	003bdf06 	br	20d4c <___vfprintf_internal_r+0xb7c>
   21dd0:	d8800615 	stw	r2,24(sp)
   21dd4:	0029883a 	mov	r20,zero
   21dd8:	00800044 	movi	r2,1
   21ddc:	003bdb06 	br	20d4c <___vfprintf_internal_r+0xb7c>
   21de0:	d8801a04 	addi	r2,sp,104
   21de4:	d8800315 	stw	r2,12(sp)
   21de8:	d9400917 	ldw	r5,36(sp)
   21dec:	d8801704 	addi	r2,sp,92
   21df0:	d9000517 	ldw	r4,20(sp)
   21df4:	d8800215 	stw	r2,8(sp)
   21df8:	d8801604 	addi	r2,sp,88
   21dfc:	dac00015 	stw	r11,0(sp)
   21e00:	d8800115 	stw	r2,4(sp)
   21e04:	01c000c4 	movi	r7,3
   21e08:	a80d883a 	mov	r6,r21
   21e0c:	da001215 	stw	r8,72(sp)
   21e10:	db001015 	stw	r12,64(sp)
   21e14:	dac00815 	stw	r11,32(sp)
   21e18:	00227c40 	call	227c4 <_dtoa_r>
   21e1c:	dac00817 	ldw	r11,32(sp)
   21e20:	1023883a 	mov	r17,r2
   21e24:	db001017 	ldw	r12,64(sp)
   21e28:	12e9883a 	add	r20,r2,r11
   21e2c:	88800007 	ldb	r2,0(r17)
   21e30:	da001217 	ldw	r8,72(sp)
   21e34:	10800c20 	cmpeqi	r2,r2,48
   21e38:	10005a1e 	bne	r2,zero,21fa4 <___vfprintf_internal_r+0x1dd4>
   21e3c:	d8801617 	ldw	r2,88(sp)
   21e40:	a0a9883a 	add	r20,r20,r2
   21e44:	d9000917 	ldw	r4,36(sp)
   21e48:	000d883a 	mov	r6,zero
   21e4c:	000f883a 	mov	r7,zero
   21e50:	a80b883a 	mov	r5,r21
   21e54:	da001215 	stw	r8,72(sp)
   21e58:	dac01015 	stw	r11,64(sp)
   21e5c:	db000815 	stw	r12,32(sp)
   21e60:	002b4d00 	call	2b4d0 <__eqdf2>
   21e64:	db000817 	ldw	r12,32(sp)
   21e68:	dac01017 	ldw	r11,64(sp)
   21e6c:	da001217 	ldw	r8,72(sp)
   21e70:	1000881e 	bne	r2,zero,22094 <___vfprintf_internal_r+0x1ec4>
   21e74:	a005883a 	mov	r2,r20
   21e78:	1445c83a 	sub	r2,r2,r17
   21e7c:	d8c00717 	ldw	r3,28(sp)
   21e80:	d8800815 	stw	r2,32(sp)
   21e84:	d8801617 	ldw	r2,88(sp)
   21e88:	18c011d8 	cmpnei	r3,r3,71
   21e8c:	d8800715 	stw	r2,28(sp)
   21e90:	183e8126 	beq	r3,zero,21898 <___vfprintf_internal_r+0x16c8>
   21e94:	d8800f17 	ldw	r2,60(sp)
   21e98:	103e8426 	beq	r2,zero,218ac <___vfprintf_internal_r+0x16dc>
   21e9c:	d8c00717 	ldw	r3,28(sp)
   21ea0:	6080004c 	andi	r2,r12,1
   21ea4:	12c4b03a 	or	r2,r2,r11
   21ea8:	00c10d0e 	bge	zero,r3,222e0 <___vfprintf_internal_r+0x2110>
   21eac:	1000f11e 	bne	r2,zero,22274 <___vfprintf_internal_r+0x20a4>
   21eb0:	dd000717 	ldw	r20,28(sp)
   21eb4:	a02b883a 	mov	r21,r20
   21eb8:	d8800e07 	ldb	r2,56(sp)
   21ebc:	10007e26 	beq	r2,zero,220b8 <___vfprintf_internal_r+0x1ee8>
   21ec0:	00800b44 	movi	r2,45
   21ec4:	d8801545 	stb	r2,85(sp)
   21ec8:	0017883a 	mov	r11,zero
   21ecc:	003bdf06 	br	20e4c <___vfprintf_internal_r+0xc7c>
   21ed0:	044000f4 	movhi	r17,3
   21ed4:	8c78f604 	addi	r17,r17,-7208
   21ed8:	003b2e06 	br	20b94 <___vfprintf_internal_r+0x9c4>
   21edc:	b021883a 	mov	r16,r22
   21ee0:	9019883a 	mov	r12,r18
   21ee4:	e02d883a 	mov	r22,fp
   21ee8:	dc800f17 	ldw	r18,60(sp)
   21eec:	8839883a 	mov	fp,r17
   21ef0:	dc400e17 	ldw	r17,56(sp)
   21ef4:	10800044 	addi	r2,r2,1
   21ef8:	1f07883a 	add	r3,r3,fp
   21efc:	d8801d15 	stw	r2,116(sp)
   21f00:	43000015 	stw	r12,0(r8)
   21f04:	47000115 	stw	fp,4(r8)
   21f08:	d8c01e15 	stw	r3,120(sp)
   21f0c:	10800208 	cmpgei	r2,r2,8
   21f10:	1000421e 	bne	r2,zero,2201c <___vfprintf_internal_r+0x1e4c>
   21f14:	42000204 	addi	r8,r8,8
   21f18:	003d9c06 	br	2158c <___vfprintf_internal_r+0x13bc>
   21f1c:	00800b44 	movi	r2,45
   21f20:	d8801545 	stb	r2,85(sp)
   21f24:	03400b44 	movi	r13,45
   21f28:	003b1606 	br	20b84 <___vfprintf_internal_r+0x9b4>
   21f2c:	8019883a 	mov	r12,r16
   21f30:	dc000717 	ldw	r16,28(sp)
   21f34:	10800044 	addi	r2,r2,1
   21f38:	1f07883a 	add	r3,r3,fp
   21f3c:	d8801d15 	stw	r2,116(sp)
   21f40:	43000015 	stw	r12,0(r8)
   21f44:	47000115 	stw	fp,4(r8)
   21f48:	d8c01e15 	stw	r3,120(sp)
   21f4c:	10800208 	cmpgei	r2,r2,8
   21f50:	103a7126 	beq	r2,zero,20918 <___vfprintf_internal_r+0x748>
   21f54:	003cc706 	br	21274 <___vfprintf_internal_r+0x10a4>
   21f58:	d9000517 	ldw	r4,20(sp)
   21f5c:	d9801c04 	addi	r6,sp,112
   21f60:	980b883a 	mov	r5,r19
   21f64:	00269980 	call	26998 <__sprint_r>
   21f68:	1039781e 	bne	r2,zero,2054c <___vfprintf_internal_r+0x37c>
   21f6c:	d9001617 	ldw	r4,88(sp)
   21f70:	d8c01e17 	ldw	r3,120(sp)
   21f74:	b811883a 	mov	r8,r23
   21f78:	003d9306 	br	215c8 <___vfprintf_internal_r+0x13f8>
   21f7c:	1560003c 	xorhi	r21,r2,32768
   21f80:	00800b44 	movi	r2,45
   21f84:	d8800e05 	stb	r2,56(sp)
   21f88:	003e1b06 	br	217f8 <___vfprintf_internal_r+0x1628>
   21f8c:	05000184 	movi	r20,6
   21f90:	003ec106 	br	21a98 <___vfprintf_internal_r+0x18c8>
   21f94:	002b883a 	mov	r21,zero
   21f98:	003a0206 	br	207a4 <___vfprintf_internal_r+0x5d4>
   21f9c:	d9401545 	stb	r5,85(sp)
   21fa0:	00398a06 	br	205cc <___vfprintf_internal_r+0x3fc>
   21fa4:	d9000917 	ldw	r4,36(sp)
   21fa8:	000d883a 	mov	r6,zero
   21fac:	000f883a 	mov	r7,zero
   21fb0:	a80b883a 	mov	r5,r21
   21fb4:	da001215 	stw	r8,72(sp)
   21fb8:	dac01015 	stw	r11,64(sp)
   21fbc:	db000815 	stw	r12,32(sp)
   21fc0:	002b4d00 	call	2b4d0 <__eqdf2>
   21fc4:	db000817 	ldw	r12,32(sp)
   21fc8:	dac01017 	ldw	r11,64(sp)
   21fcc:	da001217 	ldw	r8,72(sp)
   21fd0:	103f9a26 	beq	r2,zero,21e3c <___vfprintf_internal_r+0x1c6c>
   21fd4:	00800044 	movi	r2,1
   21fd8:	12c5c83a 	sub	r2,r2,r11
   21fdc:	d8801615 	stw	r2,88(sp)
   21fe0:	003f9706 	br	21e40 <___vfprintf_internal_r+0x1c70>
   21fe4:	583dff1e 	bne	r11,zero,217e4 <___vfprintf_internal_r+0x1614>
   21fe8:	02c00044 	movi	r11,1
   21fec:	003dfd06 	br	217e4 <___vfprintf_internal_r+0x1614>
   21ff0:	d9000517 	ldw	r4,20(sp)
   21ff4:	d9801c04 	addi	r6,sp,112
   21ff8:	980b883a 	mov	r5,r19
   21ffc:	00269980 	call	26998 <__sprint_r>
   22000:	1039521e 	bne	r2,zero,2054c <___vfprintf_internal_r+0x37c>
   22004:	d9001617 	ldw	r4,88(sp)
   22008:	d8c01e17 	ldw	r3,120(sp)
   2200c:	d8801d17 	ldw	r2,116(sp)
   22010:	b811883a 	mov	r8,r23
   22014:	203c8e0e 	bge	r4,zero,21250 <___vfprintf_internal_r+0x1080>
   22018:	003f2106 	br	21ca0 <___vfprintf_internal_r+0x1ad0>
   2201c:	d9000517 	ldw	r4,20(sp)
   22020:	d9801c04 	addi	r6,sp,112
   22024:	980b883a 	mov	r5,r19
   22028:	00269980 	call	26998 <__sprint_r>
   2202c:	1039471e 	bne	r2,zero,2054c <___vfprintf_internal_r+0x37c>
   22030:	d8c01e17 	ldw	r3,120(sp)
   22034:	b811883a 	mov	r8,r23
   22038:	003d5406 	br	2158c <___vfprintf_internal_r+0x13bc>
   2203c:	d8801a04 	addi	r2,sp,104
   22040:	d8800315 	stw	r2,12(sp)
   22044:	d9400917 	ldw	r5,36(sp)
   22048:	d8801704 	addi	r2,sp,92
   2204c:	d9000517 	ldw	r4,20(sp)
   22050:	5d000044 	addi	r20,r11,1
   22054:	d8800215 	stw	r2,8(sp)
   22058:	d8801604 	addi	r2,sp,88
   2205c:	d8800115 	stw	r2,4(sp)
   22060:	dd000015 	stw	r20,0(sp)
   22064:	01c00084 	movi	r7,2
   22068:	a80d883a 	mov	r6,r21
   2206c:	dac00815 	stw	r11,32(sp)
   22070:	00227c40 	call	227c4 <_dtoa_r>
   22074:	dac00817 	ldw	r11,32(sp)
   22078:	db001017 	ldw	r12,64(sp)
   2207c:	da001217 	ldw	r8,72(sp)
   22080:	1023883a 	mov	r17,r2
   22084:	e08011d8 	cmpnei	r2,fp,71
   22088:	103df926 	beq	r2,zero,21870 <___vfprintf_internal_r+0x16a0>
   2208c:	8d29883a 	add	r20,r17,r20
   22090:	003f6c06 	br	21e44 <___vfprintf_internal_r+0x1c74>
   22094:	d8801a17 	ldw	r2,104(sp)
   22098:	01000c04 	movi	r4,48
   2209c:	153f762e 	bgeu	r2,r20,21e78 <___vfprintf_internal_r+0x1ca8>
   220a0:	10c00044 	addi	r3,r2,1
   220a4:	d8c01a15 	stw	r3,104(sp)
   220a8:	11000005 	stb	r4,0(r2)
   220ac:	d8801a17 	ldw	r2,104(sp)
   220b0:	153ffb36 	bltu	r2,r20,220a0 <___vfprintf_internal_r+0x1ed0>
   220b4:	003f7006 	br	21e78 <___vfprintf_internal_r+0x1ca8>
   220b8:	db401543 	ldbu	r13,85(sp)
   220bc:	0017883a 	mov	r11,zero
   220c0:	003b5e06 	br	20e3c <___vfprintf_internal_r+0xc6c>
   220c4:	d8800717 	ldw	r2,28(sp)
   220c8:	d8c00817 	ldw	r3,32(sp)
   220cc:	10c02216 	blt	r2,r3,22158 <___vfprintf_internal_r+0x1f88>
   220d0:	6300004c 	andi	r12,r12,1
   220d4:	6000601e 	bne	r12,zero,22258 <___vfprintf_internal_r+0x2088>
   220d8:	102b883a 	mov	r21,r2
   220dc:	1000010e 	bge	r2,zero,220e4 <___vfprintf_internal_r+0x1f14>
   220e0:	002b883a 	mov	r21,zero
   220e4:	dd000717 	ldw	r20,28(sp)
   220e8:	070019c4 	movi	fp,103
   220ec:	003f7206 	br	21eb8 <___vfprintf_internal_r+0x1ce8>
   220f0:	d9000517 	ldw	r4,20(sp)
   220f4:	d9801c04 	addi	r6,sp,112
   220f8:	980b883a 	mov	r5,r19
   220fc:	00269980 	call	26998 <__sprint_r>
   22100:	1039121e 	bne	r2,zero,2054c <___vfprintf_internal_r+0x37c>
   22104:	d8c01e17 	ldw	r3,120(sp)
   22108:	b811883a 	mov	r8,r23
   2210c:	e03d1c0e 	bge	fp,zero,21580 <___vfprintf_internal_r+0x13b0>
   22110:	003e5c06 	br	21a84 <___vfprintf_internal_r+0x18b4>
   22114:	02c00184 	movi	r11,6
   22118:	003db206 	br	217e4 <___vfprintf_internal_r+0x1614>
   2211c:	d9000517 	ldw	r4,20(sp)
   22120:	d9801c04 	addi	r6,sp,112
   22124:	980b883a 	mov	r5,r19
   22128:	00269980 	call	26998 <__sprint_r>
   2212c:	1039071e 	bne	r2,zero,2054c <___vfprintf_internal_r+0x37c>
   22130:	d8801617 	ldw	r2,88(sp)
   22134:	d9000817 	ldw	r4,32(sp)
   22138:	d8c01e17 	ldw	r3,120(sp)
   2213c:	b811883a 	mov	r8,r23
   22140:	2085c83a 	sub	r2,r4,r2
   22144:	003d3206 	br	21610 <___vfprintf_internal_r+0x1440>
   22148:	582b883a 	mov	r21,r11
   2214c:	dc800615 	stw	r18,24(sp)
   22150:	5829883a 	mov	r20,r11
   22154:	0039bb06 	br	20844 <___vfprintf_internal_r+0x674>
   22158:	d8800817 	ldw	r2,32(sp)
   2215c:	d8c00b17 	ldw	r3,44(sp)
   22160:	10e9883a 	add	r20,r2,r3
   22164:	d8800717 	ldw	r2,28(sp)
   22168:	00800316 	blt	zero,r2,22178 <___vfprintf_internal_r+0x1fa8>
   2216c:	d8800717 	ldw	r2,28(sp)
   22170:	a0b9c83a 	sub	fp,r20,r2
   22174:	e5000044 	addi	r20,fp,1
   22178:	a02b883a 	mov	r21,r20
   2217c:	a0003b16 	blt	r20,zero,2226c <___vfprintf_internal_r+0x209c>
   22180:	070019c4 	movi	fp,103
   22184:	003f4c06 	br	21eb8 <___vfprintf_internal_r+0x1ce8>
   22188:	d9401545 	stb	r5,85(sp)
   2218c:	003ac006 	br	20c90 <___vfprintf_internal_r+0xac0>
   22190:	d9401545 	stb	r5,85(sp)
   22194:	003a2006 	br	20a18 <___vfprintf_internal_r+0x848>
   22198:	d9401545 	stb	r5,85(sp)
   2219c:	003a2e06 	br	20a58 <___vfprintf_internal_r+0x888>
   221a0:	d9401545 	stb	r5,85(sp)
   221a4:	00398306 	br	207b4 <___vfprintf_internal_r+0x5e4>
   221a8:	d9401545 	stb	r5,85(sp)
   221ac:	00395a06 	br	20718 <___vfprintf_internal_r+0x548>
   221b0:	d9401545 	stb	r5,85(sp)
   221b4:	00394606 	br	206d0 <___vfprintf_internal_r+0x500>
   221b8:	d9401545 	stb	r5,85(sp)
   221bc:	003a3606 	br	20a98 <___vfprintf_internal_r+0x8c8>
   221c0:	d9401545 	stb	r5,85(sp)
   221c4:	003a7c06 	br	20bb8 <___vfprintf_internal_r+0x9e8>
   221c8:	d9401545 	stb	r5,85(sp)
   221cc:	003a4206 	br	20ad8 <___vfprintf_internal_r+0x908>
   221d0:	d9401545 	stb	r5,85(sp)
   221d4:	003ac006 	br	20cd8 <___vfprintf_internal_r+0xb08>
   221d8:	8819883a 	mov	r12,r17
   221dc:	dc400717 	ldw	r17,28(sp)
   221e0:	a009883a 	mov	r4,r20
   221e4:	8029883a 	mov	r20,r16
   221e8:	2021883a 	mov	r16,r4
   221ec:	10800044 	addi	r2,r2,1
   221f0:	1d07883a 	add	r3,r3,r20
   221f4:	43000015 	stw	r12,0(r8)
   221f8:	45000115 	stw	r20,4(r8)
   221fc:	d8c01e15 	stw	r3,120(sp)
   22200:	d8801d15 	stw	r2,116(sp)
   22204:	11000208 	cmpgei	r4,r2,8
   22208:	203c1026 	beq	r4,zero,2124c <___vfprintf_internal_r+0x107c>
   2220c:	d9000517 	ldw	r4,20(sp)
   22210:	d9801c04 	addi	r6,sp,112
   22214:	980b883a 	mov	r5,r19
   22218:	00269980 	call	26998 <__sprint_r>
   2221c:	1038cb1e 	bne	r2,zero,2054c <___vfprintf_internal_r+0x37c>
   22220:	d8c01e17 	ldw	r3,120(sp)
   22224:	d8801d17 	ldw	r2,116(sp)
   22228:	b811883a 	mov	r8,r23
   2222c:	003c0806 	br	21250 <___vfprintf_internal_r+0x1080>
   22230:	00bfffc4 	movi	r2,-1
   22234:	d8800415 	stw	r2,16(sp)
   22238:	0038c706 	br	20558 <___vfprintf_internal_r+0x388>
   2223c:	00800c04 	movi	r2,48
   22240:	a0c00c04 	addi	r3,r20,48
   22244:	d88018c5 	stb	r2,99(sp)
   22248:	00800104 	movi	r2,4
   2224c:	d8c01905 	stb	r3,100(sp)
   22250:	d8801115 	stw	r2,68(sp)
   22254:	003dca06 	br	21980 <___vfprintf_internal_r+0x17b0>
   22258:	d8800717 	ldw	r2,28(sp)
   2225c:	d8c00b17 	ldw	r3,44(sp)
   22260:	10e9883a 	add	r20,r2,r3
   22264:	a02b883a 	mov	r21,r20
   22268:	a03fc50e 	bge	r20,zero,22180 <___vfprintf_internal_r+0x1fb0>
   2226c:	002b883a 	mov	r21,zero
   22270:	003fc306 	br	22180 <___vfprintf_internal_r+0x1fb0>
   22274:	d8800b17 	ldw	r2,44(sp)
   22278:	1885883a 	add	r2,r3,r2
   2227c:	12e9883a 	add	r20,r2,r11
   22280:	a02b883a 	mov	r21,r20
   22284:	a03f0c0e 	bge	r20,zero,21eb8 <___vfprintf_internal_r+0x1ce8>
   22288:	002b883a 	mov	r21,zero
   2228c:	003f0a06 	br	21eb8 <___vfprintf_internal_r+0x1ce8>
   22290:	d8800a17 	ldw	r2,40(sp)
   22294:	10001d16 	blt	r2,zero,2230c <___vfprintf_internal_r+0x213c>
   22298:	db401543 	ldbu	r13,85(sp)
   2229c:	e0801210 	cmplti	r2,fp,72
   222a0:	1000171e 	bne	r2,zero,22300 <___vfprintf_internal_r+0x2130>
   222a4:	044000f4 	movhi	r17,3
   222a8:	8c78f904 	addi	r17,r17,-7196
   222ac:	003a3906 	br	20b94 <___vfprintf_internal_r+0x9c4>
   222b0:	00c00044 	movi	r3,1
   222b4:	18a9c83a 	sub	r20,r3,r2
   222b8:	00800b44 	movi	r2,45
   222bc:	d8801885 	stb	r2,98(sp)
   222c0:	003d8106 	br	218c8 <___vfprintf_internal_r+0x16f8>
   222c4:	6080004c 	andi	r2,r12,1
   222c8:	d8800715 	stw	r2,28(sp)
   222cc:	103db11e 	bne	r2,zero,21994 <___vfprintf_internal_r+0x17c4>
   222d0:	003feb06 	br	22280 <___vfprintf_internal_r+0x20b0>
   222d4:	4005883a 	mov	r2,r8
   222d8:	63390684 	addi	r12,r12,-7142
   222dc:	003ea206 	br	21d68 <___vfprintf_internal_r+0x1b98>
   222e0:	1000031e 	bne	r2,zero,222f0 <___vfprintf_internal_r+0x2120>
   222e4:	05400044 	movi	r21,1
   222e8:	05000044 	movi	r20,1
   222ec:	003ef206 	br	21eb8 <___vfprintf_internal_r+0x1ce8>
   222f0:	d8800b17 	ldw	r2,44(sp)
   222f4:	10800044 	addi	r2,r2,1
   222f8:	12e9883a 	add	r20,r2,r11
   222fc:	003fe006 	br	22280 <___vfprintf_internal_r+0x20b0>
   22300:	044000f4 	movhi	r17,3
   22304:	8c78f804 	addi	r17,r17,-7200
   22308:	003a2206 	br	20b94 <___vfprintf_internal_r+0x9c4>
   2230c:	00800b44 	movi	r2,45
   22310:	d8801545 	stb	r2,85(sp)
   22314:	03400b44 	movi	r13,45
   22318:	003fe006 	br	2229c <___vfprintf_internal_r+0x20cc>
   2231c:	00800084 	movi	r2,2
   22320:	d8801115 	stw	r2,68(sp)
   22324:	003d9606 	br	21980 <___vfprintf_internal_r+0x17b0>
   22328:	d8c00617 	ldw	r3,24(sp)
   2232c:	1ac00017 	ldw	r11,0(r3)
   22330:	18c00104 	addi	r3,r3,4
   22334:	5800010e 	bge	r11,zero,2233c <___vfprintf_internal_r+0x216c>
   22338:	02ffffc4 	movi	r11,-1
   2233c:	b7000043 	ldbu	fp,1(r22)
   22340:	d8c00615 	stw	r3,24(sp)
   22344:	102d883a 	mov	r22,r2
   22348:	e2803fcc 	andi	r10,fp,255
   2234c:	5280201c 	xori	r10,r10,128
   22350:	52bfe004 	addi	r10,r10,-128
   22354:	0037f906 	br	2033c <___vfprintf_internal_r+0x16c>

00022358 <__vfprintf_internal>:
   22358:	008000f4 	movhi	r2,3
   2235c:	300f883a 	mov	r7,r6
   22360:	280d883a 	mov	r6,r5
   22364:	200b883a 	mov	r5,r4
   22368:	113d3217 	ldw	r4,-2872(r2)
   2236c:	00201d01 	jmpi	201d0 <___vfprintf_internal_r>

00022370 <__sbprintf>:
   22370:	2880030b 	ldhu	r2,12(r5)
   22374:	2b001917 	ldw	r12,100(r5)
   22378:	2ac0038b 	ldhu	r11,14(r5)
   2237c:	2a800717 	ldw	r10,28(r5)
   22380:	2a400917 	ldw	r9,36(r5)
   22384:	defee204 	addi	sp,sp,-1144
   22388:	da001a04 	addi	r8,sp,104
   2238c:	00c10004 	movi	r3,1024
   22390:	dc011a15 	stw	r16,1128(sp)
   22394:	10bfff4c 	andi	r2,r2,65533
   22398:	2821883a 	mov	r16,r5
   2239c:	d80b883a 	mov	r5,sp
   223a0:	dc811c15 	stw	r18,1136(sp)
   223a4:	dc411b15 	stw	r17,1132(sp)
   223a8:	dfc11d15 	stw	ra,1140(sp)
   223ac:	2025883a 	mov	r18,r4
   223b0:	d880030d 	sth	r2,12(sp)
   223b4:	db001915 	stw	r12,100(sp)
   223b8:	dac0038d 	sth	r11,14(sp)
   223bc:	da800715 	stw	r10,28(sp)
   223c0:	da400915 	stw	r9,36(sp)
   223c4:	da000015 	stw	r8,0(sp)
   223c8:	da000415 	stw	r8,16(sp)
   223cc:	d8c00215 	stw	r3,8(sp)
   223d0:	d8c00515 	stw	r3,20(sp)
   223d4:	d8000615 	stw	zero,24(sp)
   223d8:	00201d00 	call	201d0 <___vfprintf_internal_r>
   223dc:	1023883a 	mov	r17,r2
   223e0:	10000d0e 	bge	r2,zero,22418 <__sbprintf+0xa8>
   223e4:	d880030b 	ldhu	r2,12(sp)
   223e8:	1080100c 	andi	r2,r2,64
   223ec:	10000326 	beq	r2,zero,223fc <__sbprintf+0x8c>
   223f0:	8080030b 	ldhu	r2,12(r16)
   223f4:	10801014 	ori	r2,r2,64
   223f8:	8080030d 	sth	r2,12(r16)
   223fc:	8805883a 	mov	r2,r17
   22400:	dfc11d17 	ldw	ra,1140(sp)
   22404:	dc811c17 	ldw	r18,1136(sp)
   22408:	dc411b17 	ldw	r17,1132(sp)
   2240c:	dc011a17 	ldw	r16,1128(sp)
   22410:	dec11e04 	addi	sp,sp,1144
   22414:	f800283a 	ret
   22418:	d80b883a 	mov	r5,sp
   2241c:	9009883a 	mov	r4,r18
   22420:	00240b40 	call	240b4 <_fflush_r>
   22424:	103fef26 	beq	r2,zero,223e4 <__sbprintf+0x74>
   22428:	047fffc4 	movi	r17,-1
   2242c:	003fed06 	br	223e4 <__sbprintf+0x74>

00022430 <__swsetup_r>:
   22430:	008000f4 	movhi	r2,3
   22434:	10bd3217 	ldw	r2,-2872(r2)
   22438:	defffd04 	addi	sp,sp,-12
   2243c:	dc400115 	stw	r17,4(sp)
   22440:	dc000015 	stw	r16,0(sp)
   22444:	dfc00215 	stw	ra,8(sp)
   22448:	2023883a 	mov	r17,r4
   2244c:	2821883a 	mov	r16,r5
   22450:	10000226 	beq	r2,zero,2245c <__swsetup_r+0x2c>
   22454:	10c00e17 	ldw	r3,56(r2)
   22458:	18002026 	beq	r3,zero,224dc <__swsetup_r+0xac>
   2245c:	8080030b 	ldhu	r2,12(r16)
   22460:	10c0020c 	andi	r3,r2,8
   22464:	1009883a 	mov	r4,r2
   22468:	18002226 	beq	r3,zero,224f4 <__swsetup_r+0xc4>
   2246c:	80c00417 	ldw	r3,16(r16)
   22470:	18002826 	beq	r3,zero,22514 <__swsetup_r+0xe4>
   22474:	1100004c 	andi	r4,r2,1
   22478:	20000b1e 	bne	r4,zero,224a8 <__swsetup_r+0x78>
   2247c:	1080008c 	andi	r2,r2,2
   22480:	10002d1e 	bne	r2,zero,22538 <__swsetup_r+0x108>
   22484:	80800517 	ldw	r2,20(r16)
   22488:	80800215 	stw	r2,8(r16)
   2248c:	18000b26 	beq	r3,zero,224bc <__swsetup_r+0x8c>
   22490:	0005883a 	mov	r2,zero
   22494:	dfc00217 	ldw	ra,8(sp)
   22498:	dc400117 	ldw	r17,4(sp)
   2249c:	dc000017 	ldw	r16,0(sp)
   224a0:	dec00304 	addi	sp,sp,12
   224a4:	f800283a 	ret
   224a8:	80800517 	ldw	r2,20(r16)
   224ac:	80000215 	stw	zero,8(r16)
   224b0:	0085c83a 	sub	r2,zero,r2
   224b4:	80800615 	stw	r2,24(r16)
   224b8:	183ff51e 	bne	r3,zero,22490 <__swsetup_r+0x60>
   224bc:	80c0030b 	ldhu	r3,12(r16)
   224c0:	0005883a 	mov	r2,zero
   224c4:	1900200c 	andi	r4,r3,128
   224c8:	203ff226 	beq	r4,zero,22494 <__swsetup_r+0x64>
   224cc:	18c01014 	ori	r3,r3,64
   224d0:	80c0030d 	sth	r3,12(r16)
   224d4:	00bfffc4 	movi	r2,-1
   224d8:	003fee06 	br	22494 <__swsetup_r+0x64>
   224dc:	1009883a 	mov	r4,r2
   224e0:	00244480 	call	24448 <__sinit>
   224e4:	8080030b 	ldhu	r2,12(r16)
   224e8:	10c0020c 	andi	r3,r2,8
   224ec:	1009883a 	mov	r4,r2
   224f0:	183fde1e 	bne	r3,zero,2246c <__swsetup_r+0x3c>
   224f4:	2080040c 	andi	r2,r4,16
   224f8:	10001f26 	beq	r2,zero,22578 <__swsetup_r+0x148>
   224fc:	2080010c 	andi	r2,r4,4
   22500:	10000f1e 	bne	r2,zero,22540 <__swsetup_r+0x110>
   22504:	80c00417 	ldw	r3,16(r16)
   22508:	20800214 	ori	r2,r4,8
   2250c:	8080030d 	sth	r2,12(r16)
   22510:	183fd81e 	bne	r3,zero,22474 <__swsetup_r+0x44>
   22514:	1100a00c 	andi	r4,r2,640
   22518:	21008020 	cmpeqi	r4,r4,512
   2251c:	203fd51e 	bne	r4,zero,22474 <__swsetup_r+0x44>
   22520:	800b883a 	mov	r5,r16
   22524:	8809883a 	mov	r4,r17
   22528:	0024ab80 	call	24ab8 <__smakebuf_r>
   2252c:	8080030b 	ldhu	r2,12(r16)
   22530:	80c00417 	ldw	r3,16(r16)
   22534:	003fcf06 	br	22474 <__swsetup_r+0x44>
   22538:	0005883a 	mov	r2,zero
   2253c:	003fd206 	br	22488 <__swsetup_r+0x58>
   22540:	81400c17 	ldw	r5,48(r16)
   22544:	28000626 	beq	r5,zero,22560 <__swsetup_r+0x130>
   22548:	80801004 	addi	r2,r16,64
   2254c:	28800326 	beq	r5,r2,2255c <__swsetup_r+0x12c>
   22550:	8809883a 	mov	r4,r17
   22554:	00245ac0 	call	245ac <_free_r>
   22558:	8100030b 	ldhu	r4,12(r16)
   2255c:	80000c15 	stw	zero,48(r16)
   22560:	80c00417 	ldw	r3,16(r16)
   22564:	00bff6c4 	movi	r2,-37
   22568:	1108703a 	and	r4,r2,r4
   2256c:	80000115 	stw	zero,4(r16)
   22570:	80c00015 	stw	r3,0(r16)
   22574:	003fe406 	br	22508 <__swsetup_r+0xd8>
   22578:	00800244 	movi	r2,9
   2257c:	88800015 	stw	r2,0(r17)
   22580:	20801014 	ori	r2,r4,64
   22584:	8080030d 	sth	r2,12(r16)
   22588:	00bfffc4 	movi	r2,-1
   2258c:	003fc106 	br	22494 <__swsetup_r+0x64>

00022590 <quorem>:
   22590:	defff204 	addi	sp,sp,-56
   22594:	dc000415 	stw	r16,16(sp)
   22598:	20800417 	ldw	r2,16(r4)
   2259c:	2c000417 	ldw	r16,16(r5)
   225a0:	dfc00d15 	stw	ra,52(sp)
   225a4:	df000c15 	stw	fp,48(sp)
   225a8:	ddc00b15 	stw	r23,44(sp)
   225ac:	dd800a15 	stw	r22,40(sp)
   225b0:	dd400915 	stw	r21,36(sp)
   225b4:	dd000815 	stw	r20,32(sp)
   225b8:	dcc00715 	stw	r19,28(sp)
   225bc:	dc800615 	stw	r18,24(sp)
   225c0:	dc400515 	stw	r17,20(sp)
   225c4:	14007d16 	blt	r2,r16,227bc <quorem+0x22c>
   225c8:	843fffc4 	addi	r16,r16,-1
   225cc:	802c90ba 	slli	r22,r16,2
   225d0:	2f000504 	addi	fp,r5,20
   225d4:	24c00504 	addi	r19,r4,20
   225d8:	e5a5883a 	add	r18,fp,r22
   225dc:	9d85883a 	add	r2,r19,r22
   225e0:	95c00017 	ldw	r23,0(r18)
   225e4:	15000017 	ldw	r20,0(r2)
   225e8:	d9400215 	stw	r5,8(sp)
   225ec:	bdc00044 	addi	r23,r23,1
   225f0:	d9000115 	stw	r4,4(sp)
   225f4:	b80b883a 	mov	r5,r23
   225f8:	a009883a 	mov	r4,r20
   225fc:	dcc00015 	stw	r19,0(sp)
   22600:	d8800315 	stw	r2,12(sp)
   22604:	002a10c0 	call	2a10c <__udivsi3>
   22608:	1023883a 	mov	r17,r2
   2260c:	a5c03236 	bltu	r20,r23,226d8 <quorem+0x148>
   22610:	e02d883a 	mov	r22,fp
   22614:	9829883a 	mov	r20,r19
   22618:	002b883a 	mov	r21,zero
   2261c:	002f883a 	mov	r23,zero
   22620:	b5800104 	addi	r22,r22,4
   22624:	b4ffff17 	ldw	r19,-4(r22)
   22628:	880b883a 	mov	r5,r17
   2262c:	a5000104 	addi	r20,r20,4
   22630:	993fffcc 	andi	r4,r19,65535
   22634:	00201400 	call	20140 <__mulsi3>
   22638:	9808d43a 	srli	r4,r19,16
   2263c:	880b883a 	mov	r5,r17
   22640:	156b883a 	add	r21,r2,r21
   22644:	00201400 	call	20140 <__mulsi3>
   22648:	a0ffff17 	ldw	r3,-4(r20)
   2264c:	a80ad43a 	srli	r5,r21,16
   22650:	a93fffcc 	andi	r4,r21,65535
   22654:	b909c83a 	sub	r4,r23,r4
   22658:	19bfffcc 	andi	r6,r3,65535
   2265c:	2189883a 	add	r4,r4,r6
   22660:	1806d43a 	srli	r3,r3,16
   22664:	116b883a 	add	r21,r2,r5
   22668:	2005d43a 	srai	r2,r4,16
   2266c:	a97fffcc 	andi	r5,r21,65535
   22670:	1947c83a 	sub	r3,r3,r5
   22674:	1887883a 	add	r3,r3,r2
   22678:	1804943a 	slli	r2,r3,16
   2267c:	213fffcc 	andi	r4,r4,65535
   22680:	a82ad43a 	srli	r21,r21,16
   22684:	1108b03a 	or	r4,r2,r4
   22688:	a13fff15 	stw	r4,-4(r20)
   2268c:	182fd43a 	srai	r23,r3,16
   22690:	95bfe32e 	bgeu	r18,r22,22620 <quorem+0x90>
   22694:	d8c00317 	ldw	r3,12(sp)
   22698:	18800017 	ldw	r2,0(r3)
   2269c:	10000e1e 	bne	r2,zero,226d8 <quorem+0x148>
   226a0:	d9000017 	ldw	r4,0(sp)
   226a4:	18bfff04 	addi	r2,r3,-4
   226a8:	2080092e 	bgeu	r4,r2,226d0 <quorem+0x140>
   226ac:	18ffff17 	ldw	r3,-4(r3)
   226b0:	18000326 	beq	r3,zero,226c0 <quorem+0x130>
   226b4:	00000606 	br	226d0 <quorem+0x140>
   226b8:	10c00017 	ldw	r3,0(r2)
   226bc:	1800041e 	bne	r3,zero,226d0 <quorem+0x140>
   226c0:	d8c00017 	ldw	r3,0(sp)
   226c4:	10bfff04 	addi	r2,r2,-4
   226c8:	843fffc4 	addi	r16,r16,-1
   226cc:	18bffa36 	bltu	r3,r2,226b8 <quorem+0x128>
   226d0:	d8800117 	ldw	r2,4(sp)
   226d4:	14000415 	stw	r16,16(r2)
   226d8:	d9400217 	ldw	r5,8(sp)
   226dc:	d9000117 	ldw	r4,4(sp)
   226e0:	0025fc00 	call	25fc0 <__mcmp>
   226e4:	10002816 	blt	r2,zero,22788 <quorem+0x1f8>
   226e8:	d9800017 	ldw	r6,0(sp)
   226ec:	8c400044 	addi	r17,r17,1
   226f0:	0007883a 	mov	r3,zero
   226f4:	e7000104 	addi	fp,fp,4
   226f8:	e13fff17 	ldw	r4,-4(fp)
   226fc:	31400017 	ldw	r5,0(r6)
   22700:	31800104 	addi	r6,r6,4
   22704:	20bfffcc 	andi	r2,r4,65535
   22708:	1887c83a 	sub	r3,r3,r2
   2270c:	28bfffcc 	andi	r2,r5,65535
   22710:	1885883a 	add	r2,r3,r2
   22714:	2008d43a 	srli	r4,r4,16
   22718:	2806d43a 	srli	r3,r5,16
   2271c:	100fd43a 	srai	r7,r2,16
   22720:	117fffcc 	andi	r5,r2,65535
   22724:	1907c83a 	sub	r3,r3,r4
   22728:	19c7883a 	add	r3,r3,r7
   2272c:	1804943a 	slli	r2,r3,16
   22730:	1807d43a 	srai	r3,r3,16
   22734:	1144b03a 	or	r2,r2,r5
   22738:	30bfff15 	stw	r2,-4(r6)
   2273c:	973fed2e 	bgeu	r18,fp,226f4 <quorem+0x164>
   22740:	800690ba 	slli	r3,r16,2
   22744:	d9000017 	ldw	r4,0(sp)
   22748:	20c7883a 	add	r3,r4,r3
   2274c:	18800017 	ldw	r2,0(r3)
   22750:	10000d1e 	bne	r2,zero,22788 <quorem+0x1f8>
   22754:	18bfff04 	addi	r2,r3,-4
   22758:	2080092e 	bgeu	r4,r2,22780 <quorem+0x1f0>
   2275c:	18ffff17 	ldw	r3,-4(r3)
   22760:	18000326 	beq	r3,zero,22770 <quorem+0x1e0>
   22764:	00000606 	br	22780 <quorem+0x1f0>
   22768:	10c00017 	ldw	r3,0(r2)
   2276c:	1800041e 	bne	r3,zero,22780 <quorem+0x1f0>
   22770:	d8c00017 	ldw	r3,0(sp)
   22774:	10bfff04 	addi	r2,r2,-4
   22778:	843fffc4 	addi	r16,r16,-1
   2277c:	18bffa36 	bltu	r3,r2,22768 <quorem+0x1d8>
   22780:	d8800117 	ldw	r2,4(sp)
   22784:	14000415 	stw	r16,16(r2)
   22788:	8805883a 	mov	r2,r17
   2278c:	dfc00d17 	ldw	ra,52(sp)
   22790:	df000c17 	ldw	fp,48(sp)
   22794:	ddc00b17 	ldw	r23,44(sp)
   22798:	dd800a17 	ldw	r22,40(sp)
   2279c:	dd400917 	ldw	r21,36(sp)
   227a0:	dd000817 	ldw	r20,32(sp)
   227a4:	dcc00717 	ldw	r19,28(sp)
   227a8:	dc800617 	ldw	r18,24(sp)
   227ac:	dc400517 	ldw	r17,20(sp)
   227b0:	dc000417 	ldw	r16,16(sp)
   227b4:	dec00e04 	addi	sp,sp,56
   227b8:	f800283a 	ret
   227bc:	0005883a 	mov	r2,zero
   227c0:	003ff206 	br	2278c <quorem+0x1fc>

000227c4 <_dtoa_r>:
   227c4:	20801017 	ldw	r2,64(r4)
   227c8:	deffe204 	addi	sp,sp,-120
   227cc:	df001c15 	stw	fp,112(sp)
   227d0:	dcc01715 	stw	r19,92(sp)
   227d4:	dc401515 	stw	r17,84(sp)
   227d8:	dc001415 	stw	r16,80(sp)
   227dc:	dfc01d15 	stw	ra,116(sp)
   227e0:	ddc01b15 	stw	r23,108(sp)
   227e4:	dd801a15 	stw	r22,104(sp)
   227e8:	dd401915 	stw	r21,100(sp)
   227ec:	dd001815 	stw	r20,96(sp)
   227f0:	dc801615 	stw	r18,88(sp)
   227f4:	d9400115 	stw	r5,4(sp)
   227f8:	d9c00215 	stw	r7,8(sp)
   227fc:	2039883a 	mov	fp,r4
   22800:	3027883a 	mov	r19,r6
   22804:	dc002017 	ldw	r16,128(sp)
   22808:	3023883a 	mov	r17,r6
   2280c:	10000826 	beq	r2,zero,22830 <_dtoa_r+0x6c>
   22810:	21801117 	ldw	r6,68(r4)
   22814:	00c00044 	movi	r3,1
   22818:	100b883a 	mov	r5,r2
   2281c:	1986983a 	sll	r3,r3,r6
   22820:	11800115 	stw	r6,4(r2)
   22824:	10c00215 	stw	r3,8(r2)
   22828:	00257640 	call	25764 <_Bfree>
   2282c:	e0001015 	stw	zero,64(fp)
   22830:	98018116 	blt	r19,zero,22e38 <_dtoa_r+0x674>
   22834:	80000015 	stw	zero,0(r16)
   22838:	989ffc2c 	andhi	r2,r19,32752
   2283c:	00dffc34 	movhi	r3,32752
   22840:	10c18626 	beq	r2,r3,22e5c <_dtoa_r+0x698>
   22844:	d9000117 	ldw	r4,4(sp)
   22848:	000d883a 	mov	r6,zero
   2284c:	000f883a 	mov	r7,zero
   22850:	880b883a 	mov	r5,r17
   22854:	002b4d00 	call	2b4d0 <__eqdf2>
   22858:	1000191e 	bne	r2,zero,228c0 <_dtoa_r+0xfc>
   2285c:	d8c01f17 	ldw	r3,124(sp)
   22860:	00800044 	movi	r2,1
   22864:	18800015 	stw	r2,0(r3)
   22868:	d8802117 	ldw	r2,132(sp)
   2286c:	10032426 	beq	r2,zero,23500 <_dtoa_r+0xd3c>
   22870:	d9002117 	ldw	r4,132(sp)
   22874:	008000f4 	movhi	r2,3
   22878:	10b90644 	addi	r2,r2,-7143
   2287c:	00c000f4 	movhi	r3,3
   22880:	20800015 	stw	r2,0(r4)
   22884:	18b90604 	addi	r2,r3,-7144
   22888:	d8800315 	stw	r2,12(sp)
   2288c:	d8800317 	ldw	r2,12(sp)
   22890:	dfc01d17 	ldw	ra,116(sp)
   22894:	df001c17 	ldw	fp,112(sp)
   22898:	ddc01b17 	ldw	r23,108(sp)
   2289c:	dd801a17 	ldw	r22,104(sp)
   228a0:	dd401917 	ldw	r21,100(sp)
   228a4:	dd001817 	ldw	r20,96(sp)
   228a8:	dcc01717 	ldw	r19,92(sp)
   228ac:	dc801617 	ldw	r18,88(sp)
   228b0:	dc401517 	ldw	r17,84(sp)
   228b4:	dc001417 	ldw	r16,80(sp)
   228b8:	dec01e04 	addi	sp,sp,120
   228bc:	f800283a 	ret
   228c0:	dc800117 	ldw	r18,4(sp)
   228c4:	d8801204 	addi	r2,sp,72
   228c8:	9820d53a 	srli	r16,r19,20
   228cc:	d8800015 	stw	r2,0(sp)
   228d0:	d9c01304 	addi	r7,sp,76
   228d4:	900b883a 	mov	r5,r18
   228d8:	880d883a 	mov	r6,r17
   228dc:	e009883a 	mov	r4,fp
   228e0:	00263340 	call	26334 <__d2b>
   228e4:	102b883a 	mov	r21,r2
   228e8:	8001701e 	bne	r16,zero,22eac <_dtoa_r+0x6e8>
   228ec:	dc801217 	ldw	r18,72(sp)
   228f0:	dc001317 	ldw	r16,76(sp)
   228f4:	9421883a 	add	r16,r18,r16
   228f8:	80810c84 	addi	r2,r16,1074
   228fc:	10c00850 	cmplti	r3,r2,33
   22900:	18030f1e 	bne	r3,zero,23540 <_dtoa_r+0xd7c>
   22904:	01001004 	movi	r4,64
   22908:	2085c83a 	sub	r2,r4,r2
   2290c:	98a6983a 	sll	r19,r19,r2
   22910:	d8800117 	ldw	r2,4(sp)
   22914:	81010484 	addi	r4,r16,1042
   22918:	1108d83a 	srl	r4,r2,r4
   2291c:	9908b03a 	or	r4,r19,r4
   22920:	002ca180 	call	2ca18 <__floatunsidf>
   22924:	1009883a 	mov	r4,r2
   22928:	017f8434 	movhi	r5,65040
   2292c:	00800044 	movi	r2,1
   22930:	194b883a 	add	r5,r3,r5
   22934:	843fffc4 	addi	r16,r16,-1
   22938:	d8800a15 	stw	r2,40(sp)
   2293c:	000d883a 	mov	r6,zero
   22940:	01cffe34 	movhi	r7,16376
   22944:	002bf100 	call	2bf10 <__subdf3>
   22948:	0198dbf4 	movhi	r6,25455
   2294c:	01cff4f4 	movhi	r7,16339
   22950:	3190d844 	addi	r6,r6,17249
   22954:	39e1e9c4 	addi	r7,r7,-30809
   22958:	1009883a 	mov	r4,r2
   2295c:	180b883a 	mov	r5,r3
   22960:	002b7300 	call	2b730 <__muldf3>
   22964:	01a2d874 	movhi	r6,35681
   22968:	01cff1f4 	movhi	r7,16327
   2296c:	31b22cc4 	addi	r6,r6,-14157
   22970:	39e28a04 	addi	r7,r7,-30168
   22974:	180b883a 	mov	r5,r3
   22978:	1009883a 	mov	r4,r2
   2297c:	002a1cc0 	call	2a1cc <__adddf3>
   22980:	8009883a 	mov	r4,r16
   22984:	1029883a 	mov	r20,r2
   22988:	1827883a 	mov	r19,r3
   2298c:	002c9500 	call	2c950 <__floatsidf>
   22990:	019427f4 	movhi	r6,20639
   22994:	01cff4f4 	movhi	r7,16339
   22998:	319e7ec4 	addi	r6,r6,31227
   2299c:	39d104c4 	addi	r7,r7,17427
   229a0:	1009883a 	mov	r4,r2
   229a4:	180b883a 	mov	r5,r3
   229a8:	002b7300 	call	2b730 <__muldf3>
   229ac:	100d883a 	mov	r6,r2
   229b0:	180f883a 	mov	r7,r3
   229b4:	a009883a 	mov	r4,r20
   229b8:	980b883a 	mov	r5,r19
   229bc:	002a1cc0 	call	2a1cc <__adddf3>
   229c0:	1009883a 	mov	r4,r2
   229c4:	180b883a 	mov	r5,r3
   229c8:	1029883a 	mov	r20,r2
   229cc:	1827883a 	mov	r19,r3
   229d0:	002c8d00 	call	2c8d0 <__fixdfsi>
   229d4:	000d883a 	mov	r6,zero
   229d8:	000f883a 	mov	r7,zero
   229dc:	a009883a 	mov	r4,r20
   229e0:	980b883a 	mov	r5,r19
   229e4:	102d883a 	mov	r22,r2
   229e8:	002b6400 	call	2b640 <__ledf2>
   229ec:	1002ba16 	blt	r2,zero,234d8 <_dtoa_r+0xd14>
   229f0:	9421c83a 	sub	r16,r18,r16
   229f4:	b08005e8 	cmpgeui	r2,r22,23
   229f8:	853fffc4 	addi	r20,r16,-1
   229fc:	1002ae1e 	bne	r2,zero,234b8 <_dtoa_r+0xcf4>
   22a00:	b00690fa 	slli	r3,r22,3
   22a04:	008000f4 	movhi	r2,3
   22a08:	10b92a04 	addi	r2,r2,-7000
   22a0c:	10c5883a 	add	r2,r2,r3
   22a10:	11800017 	ldw	r6,0(r2)
   22a14:	11c00117 	ldw	r7,4(r2)
   22a18:	d9000117 	ldw	r4,4(sp)
   22a1c:	880b883a 	mov	r5,r17
   22a20:	002b6400 	call	2b640 <__ledf2>
   22a24:	10026f0e 	bge	r2,zero,233e4 <_dtoa_r+0xc20>
   22a28:	d8000915 	stw	zero,36(sp)
   22a2c:	b5bfffc4 	addi	r22,r22,-1
   22a30:	a002a416 	blt	r20,zero,234c4 <_dtoa_r+0xd00>
   22a34:	d8000515 	stw	zero,20(sp)
   22a38:	b0026d0e 	bge	r22,zero,233f0 <_dtoa_r+0xc2c>
   22a3c:	d8800517 	ldw	r2,20(sp)
   22a40:	d8c00217 	ldw	r3,8(sp)
   22a44:	dd800415 	stw	r22,16(sp)
   22a48:	1585c83a 	sub	r2,r2,r22
   22a4c:	d8800515 	stw	r2,20(sp)
   22a50:	0585c83a 	sub	r2,zero,r22
   22a54:	d8800815 	stw	r2,32(sp)
   22a58:	188002a8 	cmpgeui	r2,r3,10
   22a5c:	002d883a 	mov	r22,zero
   22a60:	1002691e 	bne	r2,zero,23408 <_dtoa_r+0xc44>
   22a64:	18800190 	cmplti	r2,r3,6
   22a68:	1002ba1e 	bne	r2,zero,23554 <_dtoa_r+0xd90>
   22a6c:	18bfff04 	addi	r2,r3,-4
   22a70:	d8800215 	stw	r2,8(sp)
   22a74:	0021883a 	mov	r16,zero
   22a78:	d8c00217 	ldw	r3,8(sp)
   22a7c:	188000e0 	cmpeqi	r2,r3,3
   22a80:	10039d1e 	bne	r2,zero,238f8 <_dtoa_r+0x1134>
   22a84:	18800108 	cmpgei	r2,r3,4
   22a88:	10027a26 	beq	r2,zero,23474 <_dtoa_r+0xcb0>
   22a8c:	d8c00217 	ldw	r3,8(sp)
   22a90:	18800120 	cmpeqi	r2,r3,4
   22a94:	10026926 	beq	r2,zero,2343c <_dtoa_r+0xc78>
   22a98:	00800044 	movi	r2,1
   22a9c:	d8800715 	stw	r2,28(sp)
   22aa0:	d8801e17 	ldw	r2,120(sp)
   22aa4:	0083670e 	bge	zero,r2,23844 <_dtoa_r+0x1080>
   22aa8:	d8800b15 	stw	r2,44(sp)
   22aac:	d8800615 	stw	r2,24(sp)
   22ab0:	100d883a 	mov	r6,r2
   22ab4:	e0001115 	stw	zero,68(fp)
   22ab8:	30800610 	cmplti	r2,r6,24
   22abc:	dc800617 	ldw	r18,24(sp)
   22ac0:	1004eb1e 	bne	r2,zero,23e70 <_dtoa_r+0x16ac>
   22ac4:	00c00044 	movi	r3,1
   22ac8:	00800104 	movi	r2,4
   22acc:	1085883a 	add	r2,r2,r2
   22ad0:	11000504 	addi	r4,r2,20
   22ad4:	180b883a 	mov	r5,r3
   22ad8:	18c00044 	addi	r3,r3,1
   22adc:	313ffb2e 	bgeu	r6,r4,22acc <_dtoa_r+0x308>
   22ae0:	e1401115 	stw	r5,68(fp)
   22ae4:	e009883a 	mov	r4,fp
   22ae8:	00256c00 	call	256c0 <_Balloc>
   22aec:	d8800315 	stw	r2,12(sp)
   22af0:	e0801015 	stw	r2,64(fp)
   22af4:	948003e8 	cmpgeui	r18,r18,15
   22af8:	9000fe1e 	bne	r18,zero,22ef4 <_dtoa_r+0x730>
   22afc:	8000fd26 	beq	r16,zero,22ef4 <_dtoa_r+0x730>
   22b00:	d9000417 	ldw	r4,16(sp)
   22b04:	0103c60e 	bge	zero,r4,23a20 <_dtoa_r+0x125c>
   22b08:	208003cc 	andi	r2,r4,15
   22b0c:	100690fa 	slli	r3,r2,3
   22b10:	202fd13a 	srai	r23,r4,4
   22b14:	008000f4 	movhi	r2,3
   22b18:	10b92a04 	addi	r2,r2,-7000
   22b1c:	10c5883a 	add	r2,r2,r3
   22b20:	b8c0040c 	andi	r3,r23,16
   22b24:	12800017 	ldw	r10,0(r2)
   22b28:	12400117 	ldw	r9,4(r2)
   22b2c:	1803621e 	bne	r3,zero,238b8 <_dtoa_r+0x10f4>
   22b30:	d8800117 	ldw	r2,4(sp)
   22b34:	8827883a 	mov	r19,r17
   22b38:	04000084 	movi	r16,2
   22b3c:	d8800c15 	stw	r2,48(sp)
   22b40:	048000f4 	movhi	r18,3
   22b44:	94b92004 	addi	r18,r18,-7040
   22b48:	b8000f26 	beq	r23,zero,22b88 <_dtoa_r+0x3c4>
   22b4c:	5005883a 	mov	r2,r10
   22b50:	4807883a 	mov	r3,r9
   22b54:	b980004c 	andi	r6,r23,1
   22b58:	1009883a 	mov	r4,r2
   22b5c:	b82fd07a 	srai	r23,r23,1
   22b60:	180b883a 	mov	r5,r3
   22b64:	30000426 	beq	r6,zero,22b78 <_dtoa_r+0x3b4>
   22b68:	91800017 	ldw	r6,0(r18)
   22b6c:	91c00117 	ldw	r7,4(r18)
   22b70:	84000044 	addi	r16,r16,1
   22b74:	002b7300 	call	2b730 <__muldf3>
   22b78:	94800204 	addi	r18,r18,8
   22b7c:	b83ff51e 	bne	r23,zero,22b54 <_dtoa_r+0x390>
   22b80:	1015883a 	mov	r10,r2
   22b84:	1813883a 	mov	r9,r3
   22b88:	d9000c17 	ldw	r4,48(sp)
   22b8c:	980b883a 	mov	r5,r19
   22b90:	500d883a 	mov	r6,r10
   22b94:	480f883a 	mov	r7,r9
   22b98:	002ab6c0 	call	2ab6c <__divdf3>
   22b9c:	1025883a 	mov	r18,r2
   22ba0:	1827883a 	mov	r19,r3
   22ba4:	d8800917 	ldw	r2,36(sp)
   22ba8:	10000626 	beq	r2,zero,22bc4 <_dtoa_r+0x400>
   22bac:	000d883a 	mov	r6,zero
   22bb0:	01cffc34 	movhi	r7,16368
   22bb4:	9009883a 	mov	r4,r18
   22bb8:	980b883a 	mov	r5,r19
   22bbc:	002b6400 	call	2b640 <__ledf2>
   22bc0:	10042616 	blt	r2,zero,23c5c <_dtoa_r+0x1498>
   22bc4:	8009883a 	mov	r4,r16
   22bc8:	002c9500 	call	2c950 <__floatsidf>
   22bcc:	900d883a 	mov	r6,r18
   22bd0:	980f883a 	mov	r7,r19
   22bd4:	1009883a 	mov	r4,r2
   22bd8:	180b883a 	mov	r5,r3
   22bdc:	002b7300 	call	2b730 <__muldf3>
   22be0:	000d883a 	mov	r6,zero
   22be4:	01d00734 	movhi	r7,16412
   22be8:	1009883a 	mov	r4,r2
   22bec:	180b883a 	mov	r5,r3
   22bf0:	002a1cc0 	call	2a1cc <__adddf3>
   22bf4:	d8800c15 	stw	r2,48(sp)
   22bf8:	00bf3034 	movhi	r2,64704
   22bfc:	1885883a 	add	r2,r3,r2
   22c00:	d8800d15 	stw	r2,52(sp)
   22c04:	d8800617 	ldw	r2,24(sp)
   22c08:	10036d26 	beq	r2,zero,239c0 <_dtoa_r+0x11fc>
   22c0c:	d8800417 	ldw	r2,16(sp)
   22c10:	d8800f15 	stw	r2,60(sp)
   22c14:	d8800617 	ldw	r2,24(sp)
   22c18:	d8800e15 	stw	r2,56(sp)
   22c1c:	980b883a 	mov	r5,r19
   22c20:	9009883a 	mov	r4,r18
   22c24:	002c8d00 	call	2c8d0 <__fixdfsi>
   22c28:	1009883a 	mov	r4,r2
   22c2c:	102f883a 	mov	r23,r2
   22c30:	002c9500 	call	2c950 <__floatsidf>
   22c34:	100d883a 	mov	r6,r2
   22c38:	180f883a 	mov	r7,r3
   22c3c:	9009883a 	mov	r4,r18
   22c40:	980b883a 	mov	r5,r19
   22c44:	002bf100 	call	2bf10 <__subdf3>
   22c48:	1025883a 	mov	r18,r2
   22c4c:	d8800e17 	ldw	r2,56(sp)
   22c50:	1821883a 	mov	r16,r3
   22c54:	ba400c04 	addi	r9,r23,48
   22c58:	10bfffc4 	addi	r2,r2,-1
   22c5c:	100690fa 	slli	r3,r2,3
   22c60:	008000f4 	movhi	r2,3
   22c64:	10b92a04 	addi	r2,r2,-7000
   22c68:	10c5883a 	add	r2,r2,r3
   22c6c:	11800017 	ldw	r6,0(r2)
   22c70:	d8c00317 	ldw	r3,12(sp)
   22c74:	11c00117 	ldw	r7,4(r2)
   22c78:	d8800717 	ldw	r2,28(sp)
   22c7c:	4811883a 	mov	r8,r9
   22c80:	da001015 	stw	r8,64(sp)
   22c84:	1dc00044 	addi	r23,r3,1
   22c88:	1003a226 	beq	r2,zero,23b14 <_dtoa_r+0x1350>
   22c8c:	0009883a 	mov	r4,zero
   22c90:	014ff834 	movhi	r5,16352
   22c94:	da401115 	stw	r9,68(sp)
   22c98:	002ab6c0 	call	2ab6c <__divdf3>
   22c9c:	d9800c17 	ldw	r6,48(sp)
   22ca0:	d9c00d17 	ldw	r7,52(sp)
   22ca4:	1009883a 	mov	r4,r2
   22ca8:	180b883a 	mov	r5,r3
   22cac:	002bf100 	call	2bf10 <__subdf3>
   22cb0:	1827883a 	mov	r19,r3
   22cb4:	da401117 	ldw	r9,68(sp)
   22cb8:	d8c00317 	ldw	r3,12(sp)
   22cbc:	900d883a 	mov	r6,r18
   22cc0:	800f883a 	mov	r7,r16
   22cc4:	1a400005 	stb	r9,0(r3)
   22cc8:	1009883a 	mov	r4,r2
   22ccc:	980b883a 	mov	r5,r19
   22cd0:	d8800c15 	stw	r2,48(sp)
   22cd4:	002b5500 	call	2b550 <__gedf2>
   22cd8:	da001017 	ldw	r8,64(sp)
   22cdc:	00804816 	blt	zero,r2,22e00 <_dtoa_r+0x63c>
   22ce0:	900d883a 	mov	r6,r18
   22ce4:	800f883a 	mov	r7,r16
   22ce8:	0009883a 	mov	r4,zero
   22cec:	014ffc34 	movhi	r5,16368
   22cf0:	da000d15 	stw	r8,52(sp)
   22cf4:	002bf100 	call	2bf10 <__subdf3>
   22cf8:	d9000c17 	ldw	r4,48(sp)
   22cfc:	100d883a 	mov	r6,r2
   22d00:	180f883a 	mov	r7,r3
   22d04:	980b883a 	mov	r5,r19
   22d08:	002b5500 	call	2b550 <__gedf2>
   22d0c:	da000d17 	ldw	r8,52(sp)
   22d10:	00844e16 	blt	zero,r2,23e4c <_dtoa_r+0x1688>
   22d14:	d8c00e17 	ldw	r3,56(sp)
   22d18:	18800060 	cmpeqi	r2,r3,1
   22d1c:	1000751e 	bne	r2,zero,22ef4 <_dtoa_r+0x730>
   22d20:	d8800317 	ldw	r2,12(sp)
   22d24:	dd800d15 	stw	r22,52(sp)
   22d28:	dd000e15 	stw	r20,56(sp)
   22d2c:	10c5883a 	add	r2,r2,r3
   22d30:	dd000c17 	ldw	r20,48(sp)
   22d34:	102d883a 	mov	r22,r2
   22d38:	dc400c15 	stw	r17,48(sp)
   22d3c:	00000806 	br	22d60 <_dtoa_r+0x59c>
   22d40:	002bf100 	call	2bf10 <__subdf3>
   22d44:	a00d883a 	mov	r6,r20
   22d48:	980f883a 	mov	r7,r19
   22d4c:	1009883a 	mov	r4,r2
   22d50:	180b883a 	mov	r5,r3
   22d54:	002b6400 	call	2b640 <__ledf2>
   22d58:	10042316 	blt	r2,zero,23de8 <_dtoa_r+0x1624>
   22d5c:	bd806226 	beq	r23,r22,22ee8 <_dtoa_r+0x724>
   22d60:	a009883a 	mov	r4,r20
   22d64:	980b883a 	mov	r5,r19
   22d68:	000d883a 	mov	r6,zero
   22d6c:	01d00934 	movhi	r7,16420
   22d70:	002b7300 	call	2b730 <__muldf3>
   22d74:	000d883a 	mov	r6,zero
   22d78:	01d00934 	movhi	r7,16420
   22d7c:	9009883a 	mov	r4,r18
   22d80:	800b883a 	mov	r5,r16
   22d84:	1029883a 	mov	r20,r2
   22d88:	1827883a 	mov	r19,r3
   22d8c:	002b7300 	call	2b730 <__muldf3>
   22d90:	180b883a 	mov	r5,r3
   22d94:	1009883a 	mov	r4,r2
   22d98:	1821883a 	mov	r16,r3
   22d9c:	1025883a 	mov	r18,r2
   22da0:	002c8d00 	call	2c8d0 <__fixdfsi>
   22da4:	1009883a 	mov	r4,r2
   22da8:	1023883a 	mov	r17,r2
   22dac:	002c9500 	call	2c950 <__floatsidf>
   22db0:	9009883a 	mov	r4,r18
   22db4:	800b883a 	mov	r5,r16
   22db8:	100d883a 	mov	r6,r2
   22dbc:	180f883a 	mov	r7,r3
   22dc0:	002bf100 	call	2bf10 <__subdf3>
   22dc4:	bdc00044 	addi	r23,r23,1
   22dc8:	8c400c04 	addi	r17,r17,48
   22dcc:	a00d883a 	mov	r6,r20
   22dd0:	980f883a 	mov	r7,r19
   22dd4:	1009883a 	mov	r4,r2
   22dd8:	180b883a 	mov	r5,r3
   22ddc:	bc7fffc5 	stb	r17,-1(r23)
   22de0:	1025883a 	mov	r18,r2
   22de4:	1821883a 	mov	r16,r3
   22de8:	002b6400 	call	2b640 <__ledf2>
   22dec:	900d883a 	mov	r6,r18
   22df0:	800f883a 	mov	r7,r16
   22df4:	0009883a 	mov	r4,zero
   22df8:	014ffc34 	movhi	r5,16368
   22dfc:	103fd00e 	bge	r2,zero,22d40 <_dtoa_r+0x57c>
   22e00:	d8800f17 	ldw	r2,60(sp)
   22e04:	10800044 	addi	r2,r2,1
   22e08:	d8800415 	stw	r2,16(sp)
   22e0c:	a80b883a 	mov	r5,r21
   22e10:	e009883a 	mov	r4,fp
   22e14:	00257640 	call	25764 <_Bfree>
   22e18:	d8801f17 	ldw	r2,124(sp)
   22e1c:	d8c00417 	ldw	r3,16(sp)
   22e20:	b8000005 	stb	zero,0(r23)
   22e24:	10c00015 	stw	r3,0(r2)
   22e28:	d8802117 	ldw	r2,132(sp)
   22e2c:	103e9726 	beq	r2,zero,2288c <_dtoa_r+0xc8>
   22e30:	15c00015 	stw	r23,0(r2)
   22e34:	003e9506 	br	2288c <_dtoa_r+0xc8>
   22e38:	04600034 	movhi	r17,32768
   22e3c:	8c7fffc4 	addi	r17,r17,-1
   22e40:	9c62703a 	and	r17,r19,r17
   22e44:	00800044 	movi	r2,1
   22e48:	8827883a 	mov	r19,r17
   22e4c:	80800015 	stw	r2,0(r16)
   22e50:	00dffc34 	movhi	r3,32752
   22e54:	989ffc2c 	andhi	r2,r19,32752
   22e58:	10fe7a1e 	bne	r2,r3,22844 <_dtoa_r+0x80>
   22e5c:	00800434 	movhi	r2,16
   22e60:	d8c01f17 	ldw	r3,124(sp)
   22e64:	10bfffc4 	addi	r2,r2,-1
   22e68:	98a6703a 	and	r19,r19,r2
   22e6c:	0089c3c4 	movi	r2,9999
   22e70:	18800015 	stw	r2,0(r3)
   22e74:	d8800117 	ldw	r2,4(sp)
   22e78:	98aab03a 	or	r21,r19,r2
   22e7c:	a800141e 	bne	r21,zero,22ed0 <_dtoa_r+0x70c>
   22e80:	d8802117 	ldw	r2,132(sp)
   22e84:	1003f626 	beq	r2,zero,23e60 <_dtoa_r+0x169c>
   22e88:	008000f4 	movhi	r2,3
   22e8c:	1007883a 	mov	r3,r2
   22e90:	18f91004 	addi	r3,r3,-7104
   22e94:	008000f4 	movhi	r2,3
   22e98:	d8c00315 	stw	r3,12(sp)
   22e9c:	10b91204 	addi	r2,r2,-7096
   22ea0:	d8c02117 	ldw	r3,132(sp)
   22ea4:	18800015 	stw	r2,0(r3)
   22ea8:	003e7806 	br	2288c <_dtoa_r+0xc8>
   22eac:	01400434 	movhi	r5,16
   22eb0:	297fffc4 	addi	r5,r5,-1
   22eb4:	894a703a 	and	r5,r17,r5
   22eb8:	9009883a 	mov	r4,r18
   22ebc:	294ffc34 	orhi	r5,r5,16368
   22ec0:	843f0044 	addi	r16,r16,-1023
   22ec4:	dc801217 	ldw	r18,72(sp)
   22ec8:	d8000a15 	stw	zero,40(sp)
   22ecc:	003e9b06 	br	2293c <_dtoa_r+0x178>
   22ed0:	d8802117 	ldw	r2,132(sp)
   22ed4:	1002461e 	bne	r2,zero,237f0 <_dtoa_r+0x102c>
   22ed8:	008000f4 	movhi	r2,3
   22edc:	10b90f04 	addi	r2,r2,-7108
   22ee0:	d8800315 	stw	r2,12(sp)
   22ee4:	003e6906 	br	2288c <_dtoa_r+0xc8>
   22ee8:	dd800d17 	ldw	r22,52(sp)
   22eec:	dd000e17 	ldw	r20,56(sp)
   22ef0:	dc400c17 	ldw	r17,48(sp)
   22ef4:	d8801317 	ldw	r2,76(sp)
   22ef8:	10009f16 	blt	r2,zero,23178 <_dtoa_r+0x9b4>
   22efc:	d9000417 	ldw	r4,16(sp)
   22f00:	20c003c8 	cmpgei	r3,r4,15
   22f04:	18009c1e 	bne	r3,zero,23178 <_dtoa_r+0x9b4>
   22f08:	200690fa 	slli	r3,r4,3
   22f0c:	008000f4 	movhi	r2,3
   22f10:	10b92a04 	addi	r2,r2,-7000
   22f14:	10c5883a 	add	r2,r2,r3
   22f18:	14000017 	ldw	r16,0(r2)
   22f1c:	14800117 	ldw	r18,4(r2)
   22f20:	d8801e17 	ldw	r2,120(sp)
   22f24:	1000140e 	bge	r2,zero,22f78 <_dtoa_r+0x7b4>
   22f28:	d8800617 	ldw	r2,24(sp)
   22f2c:	00801216 	blt	zero,r2,22f78 <_dtoa_r+0x7b4>
   22f30:	1002b81e 	bne	r2,zero,23a14 <_dtoa_r+0x1250>
   22f34:	8009883a 	mov	r4,r16
   22f38:	900b883a 	mov	r5,r18
   22f3c:	000d883a 	mov	r6,zero
   22f40:	01d00534 	movhi	r7,16404
   22f44:	002b7300 	call	2b730 <__muldf3>
   22f48:	d9800117 	ldw	r6,4(sp)
   22f4c:	880f883a 	mov	r7,r17
   22f50:	1009883a 	mov	r4,r2
   22f54:	180b883a 	mov	r5,r3
   22f58:	002b5500 	call	2b550 <__gedf2>
   22f5c:	0025883a 	mov	r18,zero
   22f60:	0021883a 	mov	r16,zero
   22f64:	1001fd16 	blt	r2,zero,2375c <_dtoa_r+0xf98>
   22f68:	d8801e17 	ldw	r2,120(sp)
   22f6c:	ddc00317 	ldw	r23,12(sp)
   22f70:	00a2303a 	nor	r17,zero,r2
   22f74:	0001ff06 	br	23774 <_dtoa_r+0xfb0>
   22f78:	dcc00117 	ldw	r19,4(sp)
   22f7c:	800d883a 	mov	r6,r16
   22f80:	900f883a 	mov	r7,r18
   22f84:	880b883a 	mov	r5,r17
   22f88:	9809883a 	mov	r4,r19
   22f8c:	002ab6c0 	call	2ab6c <__divdf3>
   22f90:	180b883a 	mov	r5,r3
   22f94:	1009883a 	mov	r4,r2
   22f98:	002c8d00 	call	2c8d0 <__fixdfsi>
   22f9c:	1009883a 	mov	r4,r2
   22fa0:	102d883a 	mov	r22,r2
   22fa4:	002c9500 	call	2c950 <__floatsidf>
   22fa8:	800d883a 	mov	r6,r16
   22fac:	900f883a 	mov	r7,r18
   22fb0:	1009883a 	mov	r4,r2
   22fb4:	180b883a 	mov	r5,r3
   22fb8:	002b7300 	call	2b730 <__muldf3>
   22fbc:	880b883a 	mov	r5,r17
   22fc0:	100d883a 	mov	r6,r2
   22fc4:	180f883a 	mov	r7,r3
   22fc8:	9809883a 	mov	r4,r19
   22fcc:	002bf100 	call	2bf10 <__subdf3>
   22fd0:	dc400317 	ldw	r17,12(sp)
   22fd4:	1009883a 	mov	r4,r2
   22fd8:	d9c00417 	ldw	r7,16(sp)
   22fdc:	b0800c04 	addi	r2,r22,48
   22fe0:	88800005 	stb	r2,0(r17)
   22fe4:	d8800617 	ldw	r2,24(sp)
   22fe8:	39c00044 	addi	r7,r7,1
   22fec:	d9c00415 	stw	r7,16(sp)
   22ff0:	11800060 	cmpeqi	r6,r2,1
   22ff4:	180b883a 	mov	r5,r3
   22ff8:	2005883a 	mov	r2,r4
   22ffc:	8dc00044 	addi	r23,r17,1
   23000:	3000391e 	bne	r6,zero,230e8 <_dtoa_r+0x924>
   23004:	01d00934 	movhi	r7,16420
   23008:	002b7300 	call	2b730 <__muldf3>
   2300c:	000d883a 	mov	r6,zero
   23010:	000f883a 	mov	r7,zero
   23014:	1009883a 	mov	r4,r2
   23018:	180b883a 	mov	r5,r3
   2301c:	1027883a 	mov	r19,r2
   23020:	1829883a 	mov	r20,r3
   23024:	002b4d00 	call	2b4d0 <__eqdf2>
   23028:	103f7826 	beq	r2,zero,22e0c <_dtoa_r+0x648>
   2302c:	d8c00617 	ldw	r3,24(sp)
   23030:	8805883a 	mov	r2,r17
   23034:	dd400115 	stw	r21,4(sp)
   23038:	8c400084 	addi	r17,r17,2
   2303c:	10ed883a 	add	r22,r2,r3
   23040:	00000a06 	br	2306c <_dtoa_r+0x8a8>
   23044:	002b7300 	call	2b730 <__muldf3>
   23048:	000d883a 	mov	r6,zero
   2304c:	000f883a 	mov	r7,zero
   23050:	1009883a 	mov	r4,r2
   23054:	180b883a 	mov	r5,r3
   23058:	1027883a 	mov	r19,r2
   2305c:	1829883a 	mov	r20,r3
   23060:	8c400044 	addi	r17,r17,1
   23064:	002b4d00 	call	2b4d0 <__eqdf2>
   23068:	10029d26 	beq	r2,zero,23ae0 <_dtoa_r+0x131c>
   2306c:	800d883a 	mov	r6,r16
   23070:	900f883a 	mov	r7,r18
   23074:	9809883a 	mov	r4,r19
   23078:	a00b883a 	mov	r5,r20
   2307c:	002ab6c0 	call	2ab6c <__divdf3>
   23080:	180b883a 	mov	r5,r3
   23084:	1009883a 	mov	r4,r2
   23088:	002c8d00 	call	2c8d0 <__fixdfsi>
   2308c:	1009883a 	mov	r4,r2
   23090:	102b883a 	mov	r21,r2
   23094:	002c9500 	call	2c950 <__floatsidf>
   23098:	800d883a 	mov	r6,r16
   2309c:	900f883a 	mov	r7,r18
   230a0:	1009883a 	mov	r4,r2
   230a4:	180b883a 	mov	r5,r3
   230a8:	002b7300 	call	2b730 <__muldf3>
   230ac:	100d883a 	mov	r6,r2
   230b0:	180f883a 	mov	r7,r3
   230b4:	9809883a 	mov	r4,r19
   230b8:	a00b883a 	mov	r5,r20
   230bc:	002bf100 	call	2bf10 <__subdf3>
   230c0:	aa400c04 	addi	r9,r21,48
   230c4:	8a7fffc5 	stb	r9,-1(r17)
   230c8:	000d883a 	mov	r6,zero
   230cc:	01d00934 	movhi	r7,16420
   230d0:	1009883a 	mov	r4,r2
   230d4:	180b883a 	mov	r5,r3
   230d8:	882f883a 	mov	r23,r17
   230dc:	b47fd91e 	bne	r22,r17,23044 <_dtoa_r+0x880>
   230e0:	a82d883a 	mov	r22,r21
   230e4:	dd400117 	ldw	r21,4(sp)
   230e8:	100d883a 	mov	r6,r2
   230ec:	180f883a 	mov	r7,r3
   230f0:	1009883a 	mov	r4,r2
   230f4:	180b883a 	mov	r5,r3
   230f8:	002a1cc0 	call	2a1cc <__adddf3>
   230fc:	800d883a 	mov	r6,r16
   23100:	900f883a 	mov	r7,r18
   23104:	1009883a 	mov	r4,r2
   23108:	180b883a 	mov	r5,r3
   2310c:	1027883a 	mov	r19,r2
   23110:	1823883a 	mov	r17,r3
   23114:	002b5500 	call	2b550 <__gedf2>
   23118:	00800816 	blt	zero,r2,2313c <_dtoa_r+0x978>
   2311c:	800d883a 	mov	r6,r16
   23120:	900f883a 	mov	r7,r18
   23124:	9809883a 	mov	r4,r19
   23128:	880b883a 	mov	r5,r17
   2312c:	002b4d00 	call	2b4d0 <__eqdf2>
   23130:	103f361e 	bne	r2,zero,22e0c <_dtoa_r+0x648>
   23134:	b580004c 	andi	r22,r22,1
   23138:	b03f3426 	beq	r22,zero,22e0c <_dtoa_r+0x648>
   2313c:	ba3fffc3 	ldbu	r8,-1(r23)
   23140:	d9000317 	ldw	r4,12(sp)
   23144:	00000306 	br	23154 <_dtoa_r+0x990>
   23148:	20c30e26 	beq	r4,r3,23d84 <_dtoa_r+0x15c0>
   2314c:	1a3fffc3 	ldbu	r8,-1(r3)
   23150:	182f883a 	mov	r23,r3
   23154:	40803fcc 	andi	r2,r8,255
   23158:	1080201c 	xori	r2,r2,128
   2315c:	10bfe004 	addi	r2,r2,-128
   23160:	10800e60 	cmpeqi	r2,r2,57
   23164:	b8ffffc4 	addi	r3,r23,-1
   23168:	103ff71e 	bne	r2,zero,23148 <_dtoa_r+0x984>
   2316c:	42000044 	addi	r8,r8,1
   23170:	1a000005 	stb	r8,0(r3)
   23174:	003f2506 	br	22e0c <_dtoa_r+0x648>
   23178:	d8c00717 	ldw	r3,28(sp)
   2317c:	1800e426 	beq	r3,zero,23510 <_dtoa_r+0xd4c>
   23180:	d8c00217 	ldw	r3,8(sp)
   23184:	18c00088 	cmpgei	r3,r3,2
   23188:	1801ec26 	beq	r3,zero,2393c <_dtoa_r+0x1178>
   2318c:	d8800617 	ldw	r2,24(sp)
   23190:	14bfffc4 	addi	r18,r2,-1
   23194:	d8800817 	ldw	r2,32(sp)
   23198:	1481c50e 	bge	r2,r18,238b0 <_dtoa_r+0x10ec>
   2319c:	d8800817 	ldw	r2,32(sp)
   231a0:	dc800815 	stw	r18,32(sp)
   231a4:	9085c83a 	sub	r2,r18,r2
   231a8:	b0ad883a 	add	r22,r22,r2
   231ac:	0025883a 	mov	r18,zero
   231b0:	d8800617 	ldw	r2,24(sp)
   231b4:	10024c16 	blt	r2,zero,23ae8 <_dtoa_r+0x1324>
   231b8:	d8c00517 	ldw	r3,20(sp)
   231bc:	a0a9883a 	add	r20,r20,r2
   231c0:	1885883a 	add	r2,r3,r2
   231c4:	1827883a 	mov	r19,r3
   231c8:	d8800515 	stw	r2,20(sp)
   231cc:	01400044 	movi	r5,1
   231d0:	e009883a 	mov	r4,fp
   231d4:	0025ae80 	call	25ae8 <__i2b>
   231d8:	1021883a 	mov	r16,r2
   231dc:	04c0080e 	bge	zero,r19,23200 <_dtoa_r+0xa3c>
   231e0:	0500070e 	bge	zero,r20,23200 <_dtoa_r+0xa3c>
   231e4:	9805883a 	mov	r2,r19
   231e8:	a4c1a916 	blt	r20,r19,23890 <_dtoa_r+0x10cc>
   231ec:	d8c00517 	ldw	r3,20(sp)
   231f0:	98a7c83a 	sub	r19,r19,r2
   231f4:	a0a9c83a 	sub	r20,r20,r2
   231f8:	1887c83a 	sub	r3,r3,r2
   231fc:	d8c00515 	stw	r3,20(sp)
   23200:	d8800817 	ldw	r2,32(sp)
   23204:	10001426 	beq	r2,zero,23258 <_dtoa_r+0xa94>
   23208:	d8800717 	ldw	r2,28(sp)
   2320c:	10017226 	beq	r2,zero,237d8 <_dtoa_r+0x1014>
   23210:	04800e0e 	bge	zero,r18,2324c <_dtoa_r+0xa88>
   23214:	800b883a 	mov	r5,r16
   23218:	900d883a 	mov	r6,r18
   2321c:	e009883a 	mov	r4,fp
   23220:	0025d5c0 	call	25d5c <__pow5mult>
   23224:	a80d883a 	mov	r6,r21
   23228:	100b883a 	mov	r5,r2
   2322c:	e009883a 	mov	r4,fp
   23230:	1021883a 	mov	r16,r2
   23234:	0025b1c0 	call	25b1c <__multiply>
   23238:	102f883a 	mov	r23,r2
   2323c:	a80b883a 	mov	r5,r21
   23240:	e009883a 	mov	r4,fp
   23244:	00257640 	call	25764 <_Bfree>
   23248:	b82b883a 	mov	r21,r23
   2324c:	d8800817 	ldw	r2,32(sp)
   23250:	148dc83a 	sub	r6,r2,r18
   23254:	3001611e 	bne	r6,zero,237dc <_dtoa_r+0x1018>
   23258:	01400044 	movi	r5,1
   2325c:	e009883a 	mov	r4,fp
   23260:	0025ae80 	call	25ae8 <__i2b>
   23264:	1025883a 	mov	r18,r2
   23268:	0580bc16 	blt	zero,r22,2355c <_dtoa_r+0xd98>
   2326c:	d8800217 	ldw	r2,8(sp)
   23270:	10800088 	cmpgei	r2,r2,2
   23274:	10016526 	beq	r2,zero,2380c <_dtoa_r+0x1048>
   23278:	0023883a 	mov	r17,zero
   2327c:	00800044 	movi	r2,1
   23280:	b000bf1e 	bne	r22,zero,23580 <_dtoa_r+0xdbc>
   23284:	1505883a 	add	r2,r2,r20
   23288:	108007cc 	andi	r2,r2,31
   2328c:	1000aa26 	beq	r2,zero,23538 <_dtoa_r+0xd74>
   23290:	00c00804 	movi	r3,32
   23294:	1887c83a 	sub	r3,r3,r2
   23298:	19000150 	cmplti	r4,r3,5
   2329c:	2002f61e 	bne	r4,zero,23e78 <_dtoa_r+0x16b4>
   232a0:	00c00704 	movi	r3,28
   232a4:	1885c83a 	sub	r2,r3,r2
   232a8:	d8c00517 	ldw	r3,20(sp)
   232ac:	98a7883a 	add	r19,r19,r2
   232b0:	a0a9883a 	add	r20,r20,r2
   232b4:	1887883a 	add	r3,r3,r2
   232b8:	d8c00515 	stw	r3,20(sp)
   232bc:	d8800517 	ldw	r2,20(sp)
   232c0:	00809716 	blt	zero,r2,23520 <_dtoa_r+0xd5c>
   232c4:	0500050e 	bge	zero,r20,232dc <_dtoa_r+0xb18>
   232c8:	900b883a 	mov	r5,r18
   232cc:	a00d883a 	mov	r6,r20
   232d0:	e009883a 	mov	r4,fp
   232d4:	0025e840 	call	25e84 <__lshift>
   232d8:	1025883a 	mov	r18,r2
   232dc:	d8800917 	ldw	r2,36(sp)
   232e0:	10012b1e 	bne	r2,zero,23790 <_dtoa_r+0xfcc>
   232e4:	d8800617 	ldw	r2,24(sp)
   232e8:	00810d0e 	bge	zero,r2,23720 <_dtoa_r+0xf5c>
   232ec:	d8800417 	ldw	r2,16(sp)
   232f0:	10800044 	addi	r2,r2,1
   232f4:	d8800415 	stw	r2,16(sp)
   232f8:	d8800717 	ldw	r2,28(sp)
   232fc:	1000b21e 	bne	r2,zero,235c8 <_dtoa_r+0xe04>
   23300:	ddc00317 	ldw	r23,12(sp)
   23304:	04400044 	movi	r17,1
   23308:	dcc00617 	ldw	r19,24(sp)
   2330c:	00000306 	br	2331c <_dtoa_r+0xb58>
   23310:	00257880 	call	25788 <__multadd>
   23314:	102b883a 	mov	r21,r2
   23318:	8c400044 	addi	r17,r17,1
   2331c:	900b883a 	mov	r5,r18
   23320:	a809883a 	mov	r4,r21
   23324:	00225900 	call	22590 <quorem>
   23328:	10800c04 	addi	r2,r2,48
   2332c:	bdc00044 	addi	r23,r23,1
   23330:	b8bfffc5 	stb	r2,-1(r23)
   23334:	000f883a 	mov	r7,zero
   23338:	01800284 	movi	r6,10
   2333c:	a80b883a 	mov	r5,r21
   23340:	e009883a 	mov	r4,fp
   23344:	8cfff216 	blt	r17,r19,23310 <_dtoa_r+0xb4c>
   23348:	1011883a 	mov	r8,r2
   2334c:	0029883a 	mov	r20,zero
   23350:	a80b883a 	mov	r5,r21
   23354:	01800044 	movi	r6,1
   23358:	e009883a 	mov	r4,fp
   2335c:	da000115 	stw	r8,4(sp)
   23360:	0025e840 	call	25e84 <__lshift>
   23364:	900b883a 	mov	r5,r18
   23368:	1009883a 	mov	r4,r2
   2336c:	102b883a 	mov	r21,r2
   23370:	0025fc00 	call	25fc0 <__mcmp>
   23374:	b8ffffc3 	ldbu	r3,-1(r23)
   23378:	0081610e 	bge	zero,r2,23900 <_dtoa_r+0x113c>
   2337c:	d9400317 	ldw	r5,12(sp)
   23380:	00000306 	br	23390 <_dtoa_r+0xbcc>
   23384:	29017726 	beq	r5,r4,23964 <_dtoa_r+0x11a0>
   23388:	20ffffc3 	ldbu	r3,-1(r4)
   2338c:	202f883a 	mov	r23,r4
   23390:	18803fcc 	andi	r2,r3,255
   23394:	1080201c 	xori	r2,r2,128
   23398:	10bfe004 	addi	r2,r2,-128
   2339c:	10800e60 	cmpeqi	r2,r2,57
   233a0:	b93fffc4 	addi	r4,r23,-1
   233a4:	103ff71e 	bne	r2,zero,23384 <_dtoa_r+0xbc0>
   233a8:	18c00044 	addi	r3,r3,1
   233ac:	20c00005 	stb	r3,0(r4)
   233b0:	900b883a 	mov	r5,r18
   233b4:	e009883a 	mov	r4,fp
   233b8:	00257640 	call	25764 <_Bfree>
   233bc:	803e9326 	beq	r16,zero,22e0c <_dtoa_r+0x648>
   233c0:	a0000426 	beq	r20,zero,233d4 <_dtoa_r+0xc10>
   233c4:	a4000326 	beq	r20,r16,233d4 <_dtoa_r+0xc10>
   233c8:	a00b883a 	mov	r5,r20
   233cc:	e009883a 	mov	r4,fp
   233d0:	00257640 	call	25764 <_Bfree>
   233d4:	800b883a 	mov	r5,r16
   233d8:	e009883a 	mov	r4,fp
   233dc:	00257640 	call	25764 <_Bfree>
   233e0:	003e8a06 	br	22e0c <_dtoa_r+0x648>
   233e4:	d8000915 	stw	zero,36(sp)
   233e8:	a0003616 	blt	r20,zero,234c4 <_dtoa_r+0xd00>
   233ec:	d8000515 	stw	zero,20(sp)
   233f0:	d8c00217 	ldw	r3,8(sp)
   233f4:	dd800415 	stw	r22,16(sp)
   233f8:	d8000815 	stw	zero,32(sp)
   233fc:	188002a8 	cmpgeui	r2,r3,10
   23400:	a5a9883a 	add	r20,r20,r22
   23404:	103d9726 	beq	r2,zero,22a64 <_dtoa_r+0x2a0>
   23408:	00800044 	movi	r2,1
   2340c:	d8800715 	stw	r2,28(sp)
   23410:	00bfffc4 	movi	r2,-1
   23414:	04bfffc4 	movi	r18,-1
   23418:	04000044 	movi	r16,1
   2341c:	d8000215 	stw	zero,8(sp)
   23420:	d8800615 	stw	r2,24(sp)
   23424:	d8001e15 	stw	zero,120(sp)
   23428:	d8800617 	ldw	r2,24(sp)
   2342c:	e0001115 	stw	zero,68(fp)
   23430:	000b883a 	mov	r5,zero
   23434:	d8800b15 	stw	r2,44(sp)
   23438:	003daa06 	br	22ae4 <_dtoa_r+0x320>
   2343c:	18800160 	cmpeqi	r2,r3,5
   23440:	00c00044 	movi	r3,1
   23444:	d8c00715 	stw	r3,28(sp)
   23448:	10000d26 	beq	r2,zero,23480 <_dtoa_r+0xcbc>
   2344c:	d8801e17 	ldw	r2,120(sp)
   23450:	d8c00417 	ldw	r3,16(sp)
   23454:	10c5883a 	add	r2,r2,r3
   23458:	d8800b15 	stw	r2,44(sp)
   2345c:	10800044 	addi	r2,r2,1
   23460:	d8800615 	stw	r2,24(sp)
   23464:	100d883a 	mov	r6,r2
   23468:	00bd9216 	blt	zero,r2,22ab4 <_dtoa_r+0x2f0>
   2346c:	01800044 	movi	r6,1
   23470:	003d9006 	br	22ab4 <_dtoa_r+0x2f0>
   23474:	188000a0 	cmpeqi	r2,r3,2
   23478:	d8000715 	stw	zero,28(sp)
   2347c:	103d881e 	bne	r2,zero,22aa0 <_dtoa_r+0x2dc>
   23480:	e0001115 	stw	zero,68(fp)
   23484:	000b883a 	mov	r5,zero
   23488:	e009883a 	mov	r4,fp
   2348c:	00256c00 	call	256c0 <_Balloc>
   23490:	d8800315 	stw	r2,12(sp)
   23494:	e0801015 	stw	r2,64(fp)
   23498:	00bfffc4 	movi	r2,-1
   2349c:	d8800b15 	stw	r2,44(sp)
   234a0:	00800044 	movi	r2,1
   234a4:	d8800715 	stw	r2,28(sp)
   234a8:	00bfffc4 	movi	r2,-1
   234ac:	d8001e15 	stw	zero,120(sp)
   234b0:	d8800615 	stw	r2,24(sp)
   234b4:	003e8f06 	br	22ef4 <_dtoa_r+0x730>
   234b8:	00800044 	movi	r2,1
   234bc:	d8800915 	stw	r2,36(sp)
   234c0:	a03d5c0e 	bge	r20,zero,22a34 <_dtoa_r+0x270>
   234c4:	04800044 	movi	r18,1
   234c8:	9405c83a 	sub	r2,r18,r16
   234cc:	d8800515 	stw	r2,20(sp)
   234d0:	0029883a 	mov	r20,zero
   234d4:	003d5806 	br	22a38 <_dtoa_r+0x274>
   234d8:	b009883a 	mov	r4,r22
   234dc:	002c9500 	call	2c950 <__floatsidf>
   234e0:	a00d883a 	mov	r6,r20
   234e4:	980f883a 	mov	r7,r19
   234e8:	1009883a 	mov	r4,r2
   234ec:	180b883a 	mov	r5,r3
   234f0:	002b4d00 	call	2b4d0 <__eqdf2>
   234f4:	103d3e26 	beq	r2,zero,229f0 <_dtoa_r+0x22c>
   234f8:	b5bfffc4 	addi	r22,r22,-1
   234fc:	003d3c06 	br	229f0 <_dtoa_r+0x22c>
   23500:	008000f4 	movhi	r2,3
   23504:	10b90604 	addi	r2,r2,-7144
   23508:	d8800315 	stw	r2,12(sp)
   2350c:	003cdf06 	br	2288c <_dtoa_r+0xc8>
   23510:	dc800817 	ldw	r18,32(sp)
   23514:	dcc00517 	ldw	r19,20(sp)
   23518:	0021883a 	mov	r16,zero
   2351c:	003f2f06 	br	231dc <_dtoa_r+0xa18>
   23520:	a80b883a 	mov	r5,r21
   23524:	100d883a 	mov	r6,r2
   23528:	e009883a 	mov	r4,fp
   2352c:	0025e840 	call	25e84 <__lshift>
   23530:	102b883a 	mov	r21,r2
   23534:	003f6306 	br	232c4 <_dtoa_r+0xb00>
   23538:	00800704 	movi	r2,28
   2353c:	003f5a06 	br	232a8 <_dtoa_r+0xae4>
   23540:	01000804 	movi	r4,32
   23544:	2089c83a 	sub	r4,r4,r2
   23548:	d8800117 	ldw	r2,4(sp)
   2354c:	1108983a 	sll	r4,r2,r4
   23550:	003cf306 	br	22920 <_dtoa_r+0x15c>
   23554:	04000044 	movi	r16,1
   23558:	003d4706 	br	22a78 <_dtoa_r+0x2b4>
   2355c:	b00d883a 	mov	r6,r22
   23560:	100b883a 	mov	r5,r2
   23564:	e009883a 	mov	r4,fp
   23568:	0025d5c0 	call	25d5c <__pow5mult>
   2356c:	1025883a 	mov	r18,r2
   23570:	d8800217 	ldw	r2,8(sp)
   23574:	10800090 	cmplti	r2,r2,2
   23578:	10012f1e 	bne	r2,zero,23a38 <_dtoa_r+0x1274>
   2357c:	0023883a 	mov	r17,zero
   23580:	90800417 	ldw	r2,16(r18)
   23584:	10800104 	addi	r2,r2,4
   23588:	100490ba 	slli	r2,r2,2
   2358c:	9085883a 	add	r2,r18,r2
   23590:	11000017 	ldw	r4,0(r2)
   23594:	00259d40 	call	259d4 <__hi0bits>
   23598:	00c00804 	movi	r3,32
   2359c:	1885c83a 	sub	r2,r3,r2
   235a0:	003f3806 	br	23284 <_dtoa_r+0xac0>
   235a4:	800b883a 	mov	r5,r16
   235a8:	000f883a 	mov	r7,zero
   235ac:	01800284 	movi	r6,10
   235b0:	e009883a 	mov	r4,fp
   235b4:	00257880 	call	25788 <__multadd>
   235b8:	1021883a 	mov	r16,r2
   235bc:	d8800b17 	ldw	r2,44(sp)
   235c0:	00821b0e 	bge	zero,r2,23e30 <_dtoa_r+0x166c>
   235c4:	d8800615 	stw	r2,24(sp)
   235c8:	04c0b316 	blt	zero,r19,23898 <_dtoa_r+0x10d4>
   235cc:	8801341e 	bne	r17,zero,23aa0 <_dtoa_r+0x12dc>
   235d0:	8027883a 	mov	r19,r16
   235d4:	dc400317 	ldw	r17,12(sp)
   235d8:	d8c00617 	ldw	r3,24(sp)
   235dc:	d8800117 	ldw	r2,4(sp)
   235e0:	8dffffc4 	addi	r23,r17,-1
   235e4:	b8c7883a 	add	r3,r23,r3
   235e8:	d8c00615 	stw	r3,24(sp)
   235ec:	d8c00217 	ldw	r3,8(sp)
   235f0:	1080004c 	andi	r2,r2,1
   235f4:	d8800815 	stw	r2,32(sp)
   235f8:	10c4b03a 	or	r2,r2,r3
   235fc:	d8800715 	stw	r2,28(sp)
   23600:	00002c06 	br	236b4 <_dtoa_r+0xef0>
   23604:	b80b883a 	mov	r5,r23
   23608:	a809883a 	mov	r4,r21
   2360c:	da000515 	stw	r8,20(sp)
   23610:	0025fc00 	call	25fc0 <__mcmp>
   23614:	b80b883a 	mov	r5,r23
   23618:	e009883a 	mov	r4,fp
   2361c:	d8800115 	stw	r2,4(sp)
   23620:	00257640 	call	25764 <_Bfree>
   23624:	d8800117 	ldw	r2,4(sp)
   23628:	da000517 	ldw	r8,20(sp)
   2362c:	1000021e 	bne	r2,zero,23638 <_dtoa_r+0xe74>
   23630:	d8c00717 	ldw	r3,28(sp)
   23634:	1801f226 	beq	r3,zero,23e00 <_dtoa_r+0x163c>
   23638:	8dc00044 	addi	r23,r17,1
   2363c:	a0010516 	blt	r20,zero,23a54 <_dtoa_r+0x1290>
   23640:	d8c00217 	ldw	r3,8(sp)
   23644:	a0e8b03a 	or	r20,r20,r3
   23648:	d8c00817 	ldw	r3,32(sp)
   2364c:	1d28b03a 	or	r20,r3,r20
   23650:	a0010026 	beq	r20,zero,23a54 <_dtoa_r+0x1290>
   23654:	00812816 	blt	zero,r2,23af8 <_dtoa_r+0x1334>
   23658:	d8800617 	ldw	r2,24(sp)
   2365c:	8a000005 	stb	r8,0(r17)
   23660:	14412926 	beq	r2,r17,23b08 <_dtoa_r+0x1344>
   23664:	a80b883a 	mov	r5,r21
   23668:	000f883a 	mov	r7,zero
   2366c:	01800284 	movi	r6,10
   23670:	e009883a 	mov	r4,fp
   23674:	00257880 	call	25788 <__multadd>
   23678:	102b883a 	mov	r21,r2
   2367c:	000f883a 	mov	r7,zero
   23680:	01800284 	movi	r6,10
   23684:	800b883a 	mov	r5,r16
   23688:	e009883a 	mov	r4,fp
   2368c:	84c02026 	beq	r16,r19,23710 <_dtoa_r+0xf4c>
   23690:	00257880 	call	25788 <__multadd>
   23694:	980b883a 	mov	r5,r19
   23698:	000f883a 	mov	r7,zero
   2369c:	01800284 	movi	r6,10
   236a0:	e009883a 	mov	r4,fp
   236a4:	1021883a 	mov	r16,r2
   236a8:	00257880 	call	25788 <__multadd>
   236ac:	1027883a 	mov	r19,r2
   236b0:	b823883a 	mov	r17,r23
   236b4:	900b883a 	mov	r5,r18
   236b8:	a809883a 	mov	r4,r21
   236bc:	00225900 	call	22590 <quorem>
   236c0:	800b883a 	mov	r5,r16
   236c4:	a809883a 	mov	r4,r21
   236c8:	102d883a 	mov	r22,r2
   236cc:	0025fc00 	call	25fc0 <__mcmp>
   236d0:	980d883a 	mov	r6,r19
   236d4:	900b883a 	mov	r5,r18
   236d8:	e009883a 	mov	r4,fp
   236dc:	1029883a 	mov	r20,r2
   236e0:	00260180 	call	26018 <__mdiff>
   236e4:	102f883a 	mov	r23,r2
   236e8:	10800317 	ldw	r2,12(r2)
   236ec:	b2000c04 	addi	r8,r22,48
   236f0:	103fc426 	beq	r2,zero,23604 <_dtoa_r+0xe40>
   236f4:	b80b883a 	mov	r5,r23
   236f8:	e009883a 	mov	r4,fp
   236fc:	da000115 	stw	r8,4(sp)
   23700:	00257640 	call	25764 <_Bfree>
   23704:	00800044 	movi	r2,1
   23708:	da000117 	ldw	r8,4(sp)
   2370c:	003fca06 	br	23638 <_dtoa_r+0xe74>
   23710:	00257880 	call	25788 <__multadd>
   23714:	1021883a 	mov	r16,r2
   23718:	1027883a 	mov	r19,r2
   2371c:	003fe406 	br	236b0 <_dtoa_r+0xeec>
   23720:	d8800217 	ldw	r2,8(sp)
   23724:	108000d0 	cmplti	r2,r2,3
   23728:	10004b1e 	bne	r2,zero,23858 <_dtoa_r+0x1094>
   2372c:	d8800617 	ldw	r2,24(sp)
   23730:	103e0d1e 	bne	r2,zero,22f68 <_dtoa_r+0x7a4>
   23734:	900b883a 	mov	r5,r18
   23738:	e009883a 	mov	r4,fp
   2373c:	000f883a 	mov	r7,zero
   23740:	01800144 	movi	r6,5
   23744:	00257880 	call	25788 <__multadd>
   23748:	100b883a 	mov	r5,r2
   2374c:	a809883a 	mov	r4,r21
   23750:	1025883a 	mov	r18,r2
   23754:	0025fc00 	call	25fc0 <__mcmp>
   23758:	00be030e 	bge	zero,r2,22f68 <_dtoa_r+0x7a4>
   2375c:	d8c00317 	ldw	r3,12(sp)
   23760:	00800c44 	movi	r2,49
   23764:	18800005 	stb	r2,0(r3)
   23768:	d8800417 	ldw	r2,16(sp)
   2376c:	1dc00044 	addi	r23,r3,1
   23770:	14400044 	addi	r17,r2,1
   23774:	900b883a 	mov	r5,r18
   23778:	e009883a 	mov	r4,fp
   2377c:	00257640 	call	25764 <_Bfree>
   23780:	88800044 	addi	r2,r17,1
   23784:	d8800415 	stw	r2,16(sp)
   23788:	803f121e 	bne	r16,zero,233d4 <_dtoa_r+0xc10>
   2378c:	003d9f06 	br	22e0c <_dtoa_r+0x648>
   23790:	900b883a 	mov	r5,r18
   23794:	a809883a 	mov	r4,r21
   23798:	0025fc00 	call	25fc0 <__mcmp>
   2379c:	103ed10e 	bge	r2,zero,232e4 <_dtoa_r+0xb20>
   237a0:	a80b883a 	mov	r5,r21
   237a4:	000f883a 	mov	r7,zero
   237a8:	01800284 	movi	r6,10
   237ac:	e009883a 	mov	r4,fp
   237b0:	00257880 	call	25788 <__multadd>
   237b4:	102b883a 	mov	r21,r2
   237b8:	d8800417 	ldw	r2,16(sp)
   237bc:	153fffc4 	addi	r20,r2,-1
   237c0:	d8800717 	ldw	r2,28(sp)
   237c4:	103f771e 	bne	r2,zero,235a4 <_dtoa_r+0xde0>
   237c8:	d8800b17 	ldw	r2,44(sp)
   237cc:	0081910e 	bge	zero,r2,23e14 <_dtoa_r+0x1650>
   237d0:	d8800615 	stw	r2,24(sp)
   237d4:	003eca06 	br	23300 <_dtoa_r+0xb3c>
   237d8:	d9800817 	ldw	r6,32(sp)
   237dc:	a80b883a 	mov	r5,r21
   237e0:	e009883a 	mov	r4,fp
   237e4:	0025d5c0 	call	25d5c <__pow5mult>
   237e8:	102b883a 	mov	r21,r2
   237ec:	003e9a06 	br	23258 <_dtoa_r+0xa94>
   237f0:	008000f4 	movhi	r2,3
   237f4:	1007883a 	mov	r3,r2
   237f8:	18f90f04 	addi	r3,r3,-7108
   237fc:	008000f4 	movhi	r2,3
   23800:	d8c00315 	stw	r3,12(sp)
   23804:	10b90fc4 	addi	r2,r2,-7105
   23808:	003da506 	br	22ea0 <_dtoa_r+0x6dc>
   2380c:	d8800117 	ldw	r2,4(sp)
   23810:	103e991e 	bne	r2,zero,23278 <_dtoa_r+0xab4>
   23814:	00800434 	movhi	r2,16
   23818:	10bfffc4 	addi	r2,r2,-1
   2381c:	8884703a 	and	r2,r17,r2
   23820:	103e951e 	bne	r2,zero,23278 <_dtoa_r+0xab4>
   23824:	8c5ffc2c 	andhi	r17,r17,32752
   23828:	883e9326 	beq	r17,zero,23278 <_dtoa_r+0xab4>
   2382c:	d8800517 	ldw	r2,20(sp)
   23830:	a5000044 	addi	r20,r20,1
   23834:	04400044 	movi	r17,1
   23838:	10800044 	addi	r2,r2,1
   2383c:	d8800515 	stw	r2,20(sp)
   23840:	003e8e06 	br	2327c <_dtoa_r+0xab8>
   23844:	00800044 	movi	r2,1
   23848:	04800044 	movi	r18,1
   2384c:	d8800615 	stw	r2,24(sp)
   23850:	d8801e15 	stw	r2,120(sp)
   23854:	003ef406 	br	23428 <_dtoa_r+0xc64>
   23858:	d8800417 	ldw	r2,16(sp)
   2385c:	10800044 	addi	r2,r2,1
   23860:	d8800415 	stw	r2,16(sp)
   23864:	d8800717 	ldw	r2,28(sp)
   23868:	103f571e 	bne	r2,zero,235c8 <_dtoa_r+0xe04>
   2386c:	900b883a 	mov	r5,r18
   23870:	a809883a 	mov	r4,r21
   23874:	00225900 	call	22590 <quorem>
   23878:	12000c04 	addi	r8,r2,48
   2387c:	d8800317 	ldw	r2,12(sp)
   23880:	0029883a 	mov	r20,zero
   23884:	15c00044 	addi	r23,r2,1
   23888:	12000005 	stb	r8,0(r2)
   2388c:	003eb006 	br	23350 <_dtoa_r+0xb8c>
   23890:	a005883a 	mov	r2,r20
   23894:	003e5506 	br	231ec <_dtoa_r+0xa28>
   23898:	800b883a 	mov	r5,r16
   2389c:	980d883a 	mov	r6,r19
   238a0:	e009883a 	mov	r4,fp
   238a4:	0025e840 	call	25e84 <__lshift>
   238a8:	1021883a 	mov	r16,r2
   238ac:	003f4706 	br	235cc <_dtoa_r+0xe08>
   238b0:	14a5c83a 	sub	r18,r2,r18
   238b4:	003e3e06 	br	231b0 <_dtoa_r+0x9ec>
   238b8:	008000f4 	movhi	r2,3
   238bc:	10b92004 	addi	r2,r2,-7040
   238c0:	11800817 	ldw	r6,32(r2)
   238c4:	11c00917 	ldw	r7,36(r2)
   238c8:	d9000117 	ldw	r4,4(sp)
   238cc:	880b883a 	mov	r5,r17
   238d0:	da400e15 	stw	r9,56(sp)
   238d4:	da800d15 	stw	r10,52(sp)
   238d8:	002ab6c0 	call	2ab6c <__divdf3>
   238dc:	d8800c15 	stw	r2,48(sp)
   238e0:	1827883a 	mov	r19,r3
   238e4:	bdc003cc 	andi	r23,r23,15
   238e8:	040000c4 	movi	r16,3
   238ec:	da800d17 	ldw	r10,52(sp)
   238f0:	da400e17 	ldw	r9,56(sp)
   238f4:	003c9206 	br	22b40 <_dtoa_r+0x37c>
   238f8:	d8000715 	stw	zero,28(sp)
   238fc:	003ed306 	br	2344c <_dtoa_r+0xc88>
   23900:	1000031e 	bne	r2,zero,23910 <_dtoa_r+0x114c>
   23904:	da000117 	ldw	r8,4(sp)
   23908:	4200004c 	andi	r8,r8,1
   2390c:	403e9b1e 	bne	r8,zero,2337c <_dtoa_r+0xbb8>
   23910:	1805883a 	mov	r2,r3
   23914:	00000206 	br	23920 <_dtoa_r+0x115c>
   23918:	b8bfff83 	ldbu	r2,-2(r23)
   2391c:	182f883a 	mov	r23,r3
   23920:	10803fcc 	andi	r2,r2,255
   23924:	1080201c 	xori	r2,r2,128
   23928:	10bfe004 	addi	r2,r2,-128
   2392c:	10800c18 	cmpnei	r2,r2,48
   23930:	b8ffffc4 	addi	r3,r23,-1
   23934:	103ff826 	beq	r2,zero,23918 <_dtoa_r+0x1154>
   23938:	003e9d06 	br	233b0 <_dtoa_r+0xbec>
   2393c:	d8c00a17 	ldw	r3,40(sp)
   23940:	1800bc26 	beq	r3,zero,23c34 <_dtoa_r+0x1470>
   23944:	d8c00517 	ldw	r3,20(sp)
   23948:	10810cc4 	addi	r2,r2,1075
   2394c:	a0a9883a 	add	r20,r20,r2
   23950:	1885883a 	add	r2,r3,r2
   23954:	1827883a 	mov	r19,r3
   23958:	dc800817 	ldw	r18,32(sp)
   2395c:	d8800515 	stw	r2,20(sp)
   23960:	003e1a06 	br	231cc <_dtoa_r+0xa08>
   23964:	d8c00317 	ldw	r3,12(sp)
   23968:	00800c44 	movi	r2,49
   2396c:	18800005 	stb	r2,0(r3)
   23970:	d8800417 	ldw	r2,16(sp)
   23974:	10800044 	addi	r2,r2,1
   23978:	d8800415 	stw	r2,16(sp)
   2397c:	003e8c06 	br	233b0 <_dtoa_r+0xbec>
   23980:	8009883a 	mov	r4,r16
   23984:	002c9500 	call	2c950 <__floatsidf>
   23988:	900d883a 	mov	r6,r18
   2398c:	980f883a 	mov	r7,r19
   23990:	1009883a 	mov	r4,r2
   23994:	180b883a 	mov	r5,r3
   23998:	002b7300 	call	2b730 <__muldf3>
   2399c:	000d883a 	mov	r6,zero
   239a0:	01d00734 	movhi	r7,16412
   239a4:	1009883a 	mov	r4,r2
   239a8:	180b883a 	mov	r5,r3
   239ac:	002a1cc0 	call	2a1cc <__adddf3>
   239b0:	d8800c15 	stw	r2,48(sp)
   239b4:	00bf3034 	movhi	r2,64704
   239b8:	1885883a 	add	r2,r3,r2
   239bc:	d8800d15 	stw	r2,52(sp)
   239c0:	9009883a 	mov	r4,r18
   239c4:	980b883a 	mov	r5,r19
   239c8:	000d883a 	mov	r6,zero
   239cc:	01d00534 	movhi	r7,16404
   239d0:	002bf100 	call	2bf10 <__subdf3>
   239d4:	ddc00c17 	ldw	r23,48(sp)
   239d8:	dcc00d17 	ldw	r19,52(sp)
   239dc:	1009883a 	mov	r4,r2
   239e0:	b80d883a 	mov	r6,r23
   239e4:	980f883a 	mov	r7,r19
   239e8:	180b883a 	mov	r5,r3
   239ec:	1025883a 	mov	r18,r2
   239f0:	1821883a 	mov	r16,r3
   239f4:	002b5500 	call	2b550 <__gedf2>
   239f8:	0080ee16 	blt	zero,r2,23db4 <_dtoa_r+0x15f0>
   239fc:	99e0003c 	xorhi	r7,r19,32768
   23a00:	b80d883a 	mov	r6,r23
   23a04:	9009883a 	mov	r4,r18
   23a08:	800b883a 	mov	r5,r16
   23a0c:	002b6400 	call	2b640 <__ledf2>
   23a10:	103d380e 	bge	r2,zero,22ef4 <_dtoa_r+0x730>
   23a14:	0025883a 	mov	r18,zero
   23a18:	0021883a 	mov	r16,zero
   23a1c:	003d5206 	br	22f68 <_dtoa_r+0x7a4>
   23a20:	d8800417 	ldw	r2,16(sp)
   23a24:	1000ad1e 	bne	r2,zero,23cdc <_dtoa_r+0x1518>
   23a28:	dc800117 	ldw	r18,4(sp)
   23a2c:	8827883a 	mov	r19,r17
   23a30:	04000084 	movi	r16,2
   23a34:	003c5b06 	br	22ba4 <_dtoa_r+0x3e0>
   23a38:	d8800117 	ldw	r2,4(sp)
   23a3c:	103ecf1e 	bne	r2,zero,2357c <_dtoa_r+0xdb8>
   23a40:	00800434 	movhi	r2,16
   23a44:	10bfffc4 	addi	r2,r2,-1
   23a48:	8884703a 	and	r2,r17,r2
   23a4c:	103f7526 	beq	r2,zero,23824 <_dtoa_r+0x1060>
   23a50:	003eca06 	br	2357c <_dtoa_r+0xdb8>
   23a54:	00800e0e 	bge	zero,r2,23a90 <_dtoa_r+0x12cc>
   23a58:	a80b883a 	mov	r5,r21
   23a5c:	01800044 	movi	r6,1
   23a60:	e009883a 	mov	r4,fp
   23a64:	da000115 	stw	r8,4(sp)
   23a68:	0025e840 	call	25e84 <__lshift>
   23a6c:	900b883a 	mov	r5,r18
   23a70:	1009883a 	mov	r4,r2
   23a74:	102b883a 	mov	r21,r2
   23a78:	0025fc00 	call	25fc0 <__mcmp>
   23a7c:	da000117 	ldw	r8,4(sp)
   23a80:	0080d50e 	bge	zero,r2,23dd8 <_dtoa_r+0x1614>
   23a84:	42000e60 	cmpeqi	r8,r8,57
   23a88:	4000c31e 	bne	r8,zero,23d98 <_dtoa_r+0x15d4>
   23a8c:	b2000c44 	addi	r8,r22,49
   23a90:	8029883a 	mov	r20,r16
   23a94:	8a000005 	stb	r8,0(r17)
   23a98:	9821883a 	mov	r16,r19
   23a9c:	003e4406 	br	233b0 <_dtoa_r+0xbec>
   23aa0:	81400117 	ldw	r5,4(r16)
   23aa4:	e009883a 	mov	r4,fp
   23aa8:	00256c00 	call	256c0 <_Balloc>
   23aac:	81800417 	ldw	r6,16(r16)
   23ab0:	81400304 	addi	r5,r16,12
   23ab4:	11000304 	addi	r4,r2,12
   23ab8:	31800084 	addi	r6,r6,2
   23abc:	300c90ba 	slli	r6,r6,2
   23ac0:	1023883a 	mov	r17,r2
   23ac4:	00254d00 	call	254d0 <memcpy>
   23ac8:	01800044 	movi	r6,1
   23acc:	880b883a 	mov	r5,r17
   23ad0:	e009883a 	mov	r4,fp
   23ad4:	0025e840 	call	25e84 <__lshift>
   23ad8:	1027883a 	mov	r19,r2
   23adc:	003ebd06 	br	235d4 <_dtoa_r+0xe10>
   23ae0:	dd400117 	ldw	r21,4(sp)
   23ae4:	003cc906 	br	22e0c <_dtoa_r+0x648>
   23ae8:	d8800517 	ldw	r2,20(sp)
   23aec:	d8c00617 	ldw	r3,24(sp)
   23af0:	10e7c83a 	sub	r19,r2,r3
   23af4:	003db506 	br	231cc <_dtoa_r+0xa08>
   23af8:	40800e58 	cmpnei	r2,r8,57
   23afc:	1000a626 	beq	r2,zero,23d98 <_dtoa_r+0x15d4>
   23b00:	42000044 	addi	r8,r8,1
   23b04:	003fe206 	br	23a90 <_dtoa_r+0x12cc>
   23b08:	8029883a 	mov	r20,r16
   23b0c:	9821883a 	mov	r16,r19
   23b10:	003e0f06 	br	23350 <_dtoa_r+0xb8c>
   23b14:	d9000c17 	ldw	r4,48(sp)
   23b18:	d9400d17 	ldw	r5,52(sp)
   23b1c:	da401015 	stw	r9,64(sp)
   23b20:	002b7300 	call	2b730 <__muldf3>
   23b24:	d9000e17 	ldw	r4,56(sp)
   23b28:	d8c00d15 	stw	r3,52(sp)
   23b2c:	da401017 	ldw	r9,64(sp)
   23b30:	d8c00317 	ldw	r3,12(sp)
   23b34:	d8800c15 	stw	r2,48(sp)
   23b38:	20800058 	cmpnei	r2,r4,1
   23b3c:	1a400005 	stb	r9,0(r3)
   23b40:	1907883a 	add	r3,r3,r4
   23b44:	1809883a 	mov	r4,r3
   23b48:	10001d26 	beq	r2,zero,23bc0 <_dtoa_r+0x13fc>
   23b4c:	8007883a 	mov	r3,r16
   23b50:	9005883a 	mov	r2,r18
   23b54:	dc400e15 	stw	r17,56(sp)
   23b58:	2021883a 	mov	r16,r4
   23b5c:	000d883a 	mov	r6,zero
   23b60:	01d00934 	movhi	r7,16420
   23b64:	1009883a 	mov	r4,r2
   23b68:	180b883a 	mov	r5,r3
   23b6c:	002b7300 	call	2b730 <__muldf3>
   23b70:	180b883a 	mov	r5,r3
   23b74:	1009883a 	mov	r4,r2
   23b78:	1825883a 	mov	r18,r3
   23b7c:	1023883a 	mov	r17,r2
   23b80:	002c8d00 	call	2c8d0 <__fixdfsi>
   23b84:	1009883a 	mov	r4,r2
   23b88:	1027883a 	mov	r19,r2
   23b8c:	002c9500 	call	2c950 <__floatsidf>
   23b90:	100d883a 	mov	r6,r2
   23b94:	180f883a 	mov	r7,r3
   23b98:	8809883a 	mov	r4,r17
   23b9c:	900b883a 	mov	r5,r18
   23ba0:	bdc00044 	addi	r23,r23,1
   23ba4:	9cc00c04 	addi	r19,r19,48
   23ba8:	002bf100 	call	2bf10 <__subdf3>
   23bac:	bcffffc5 	stb	r19,-1(r23)
   23bb0:	bc3fea1e 	bne	r23,r16,23b5c <_dtoa_r+0x1398>
   23bb4:	dc400e17 	ldw	r17,56(sp)
   23bb8:	1025883a 	mov	r18,r2
   23bbc:	1821883a 	mov	r16,r3
   23bc0:	d9000c17 	ldw	r4,48(sp)
   23bc4:	d9400d17 	ldw	r5,52(sp)
   23bc8:	000d883a 	mov	r6,zero
   23bcc:	01cff834 	movhi	r7,16352
   23bd0:	002a1cc0 	call	2a1cc <__adddf3>
   23bd4:	100d883a 	mov	r6,r2
   23bd8:	180f883a 	mov	r7,r3
   23bdc:	9009883a 	mov	r4,r18
   23be0:	800b883a 	mov	r5,r16
   23be4:	002b5500 	call	2b550 <__gedf2>
   23be8:	00807516 	blt	zero,r2,23dc0 <_dtoa_r+0x15fc>
   23bec:	d9800c17 	ldw	r6,48(sp)
   23bf0:	d9c00d17 	ldw	r7,52(sp)
   23bf4:	0009883a 	mov	r4,zero
   23bf8:	014ff834 	movhi	r5,16352
   23bfc:	002bf100 	call	2bf10 <__subdf3>
   23c00:	100d883a 	mov	r6,r2
   23c04:	180f883a 	mov	r7,r3
   23c08:	9009883a 	mov	r4,r18
   23c0c:	800b883a 	mov	r5,r16
   23c10:	002b6400 	call	2b640 <__ledf2>
   23c14:	103cb70e 	bge	r2,zero,22ef4 <_dtoa_r+0x730>
   23c18:	00000106 	br	23c20 <_dtoa_r+0x145c>
   23c1c:	182f883a 	mov	r23,r3
   23c20:	b8bfffc7 	ldb	r2,-1(r23)
   23c24:	b8ffffc4 	addi	r3,r23,-1
   23c28:	10800c20 	cmpeqi	r2,r2,48
   23c2c:	103ffb1e 	bne	r2,zero,23c1c <_dtoa_r+0x1458>
   23c30:	003c7306 	br	22e00 <_dtoa_r+0x63c>
   23c34:	d8c01217 	ldw	r3,72(sp)
   23c38:	d9000517 	ldw	r4,20(sp)
   23c3c:	00800d84 	movi	r2,54
   23c40:	10c5c83a 	sub	r2,r2,r3
   23c44:	a0a9883a 	add	r20,r20,r2
   23c48:	2085883a 	add	r2,r4,r2
   23c4c:	2027883a 	mov	r19,r4
   23c50:	dc800817 	ldw	r18,32(sp)
   23c54:	d8800515 	stw	r2,20(sp)
   23c58:	003d5c06 	br	231cc <_dtoa_r+0xa08>
   23c5c:	d8800617 	ldw	r2,24(sp)
   23c60:	103f4726 	beq	r2,zero,23980 <_dtoa_r+0x11bc>
   23c64:	ddc00b17 	ldw	r23,44(sp)
   23c68:	05fca20e 	bge	zero,r23,22ef4 <_dtoa_r+0x730>
   23c6c:	980b883a 	mov	r5,r19
   23c70:	000d883a 	mov	r6,zero
   23c74:	01d00934 	movhi	r7,16420
   23c78:	9009883a 	mov	r4,r18
   23c7c:	002b7300 	call	2b730 <__muldf3>
   23c80:	81000044 	addi	r4,r16,1
   23c84:	1025883a 	mov	r18,r2
   23c88:	1827883a 	mov	r19,r3
   23c8c:	002c9500 	call	2c950 <__floatsidf>
   23c90:	900d883a 	mov	r6,r18
   23c94:	980f883a 	mov	r7,r19
   23c98:	1009883a 	mov	r4,r2
   23c9c:	180b883a 	mov	r5,r3
   23ca0:	002b7300 	call	2b730 <__muldf3>
   23ca4:	000d883a 	mov	r6,zero
   23ca8:	01d00734 	movhi	r7,16412
   23cac:	1009883a 	mov	r4,r2
   23cb0:	180b883a 	mov	r5,r3
   23cb4:	002a1cc0 	call	2a1cc <__adddf3>
   23cb8:	d8800c15 	stw	r2,48(sp)
   23cbc:	d8800417 	ldw	r2,16(sp)
   23cc0:	ddc00e15 	stw	r23,56(sp)
   23cc4:	10bfffc4 	addi	r2,r2,-1
   23cc8:	d8800f15 	stw	r2,60(sp)
   23ccc:	00bf3034 	movhi	r2,64704
   23cd0:	1885883a 	add	r2,r3,r2
   23cd4:	d8800d15 	stw	r2,52(sp)
   23cd8:	003bd006 	br	22c1c <_dtoa_r+0x458>
   23cdc:	d8800417 	ldw	r2,16(sp)
   23ce0:	d9000117 	ldw	r4,4(sp)
   23ce4:	880b883a 	mov	r5,r17
   23ce8:	00afc83a 	sub	r23,zero,r2
   23cec:	b88003cc 	andi	r2,r23,15
   23cf0:	100690fa 	slli	r3,r2,3
   23cf4:	008000f4 	movhi	r2,3
   23cf8:	10b92a04 	addi	r2,r2,-7000
   23cfc:	10c5883a 	add	r2,r2,r3
   23d00:	11800017 	ldw	r6,0(r2)
   23d04:	11c00117 	ldw	r7,4(r2)
   23d08:	b82fd13a 	srai	r23,r23,4
   23d0c:	002b7300 	call	2b730 <__muldf3>
   23d10:	1025883a 	mov	r18,r2
   23d14:	1827883a 	mov	r19,r3
   23d18:	b8004a26 	beq	r23,zero,23e44 <_dtoa_r+0x1680>
   23d1c:	020000f4 	movhi	r8,3
   23d20:	04000084 	movi	r16,2
   23d24:	42392004 	addi	r8,r8,-7040
   23d28:	dc400c15 	stw	r17,48(sp)
   23d2c:	000f883a 	mov	r7,zero
   23d30:	8023883a 	mov	r17,r16
   23d34:	4021883a 	mov	r16,r8
   23d38:	b980004c 	andi	r6,r23,1
   23d3c:	1009883a 	mov	r4,r2
   23d40:	b82fd07a 	srai	r23,r23,1
   23d44:	180b883a 	mov	r5,r3
   23d48:	30000526 	beq	r6,zero,23d60 <_dtoa_r+0x159c>
   23d4c:	81c00117 	ldw	r7,4(r16)
   23d50:	81800017 	ldw	r6,0(r16)
   23d54:	8c400044 	addi	r17,r17,1
   23d58:	002b7300 	call	2b730 <__muldf3>
   23d5c:	01c00044 	movi	r7,1
   23d60:	84000204 	addi	r16,r16,8
   23d64:	b83ff41e 	bne	r23,zero,23d38 <_dtoa_r+0x1574>
   23d68:	39c03fcc 	andi	r7,r7,255
   23d6c:	8821883a 	mov	r16,r17
   23d70:	dc400c17 	ldw	r17,48(sp)
   23d74:	383b8b26 	beq	r7,zero,22ba4 <_dtoa_r+0x3e0>
   23d78:	1025883a 	mov	r18,r2
   23d7c:	1827883a 	mov	r19,r3
   23d80:	003b8806 	br	22ba4 <_dtoa_r+0x3e0>
   23d84:	d8800417 	ldw	r2,16(sp)
   23d88:	02000c44 	movi	r8,49
   23d8c:	10800044 	addi	r2,r2,1
   23d90:	d8800415 	stw	r2,16(sp)
   23d94:	003cf606 	br	23170 <_dtoa_r+0x9ac>
   23d98:	00800e44 	movi	r2,57
   23d9c:	8029883a 	mov	r20,r16
   23da0:	88800005 	stb	r2,0(r17)
   23da4:	9821883a 	mov	r16,r19
   23da8:	00c00e44 	movi	r3,57
   23dac:	d9400317 	ldw	r5,12(sp)
   23db0:	003d7706 	br	23390 <_dtoa_r+0xbcc>
   23db4:	0025883a 	mov	r18,zero
   23db8:	0021883a 	mov	r16,zero
   23dbc:	003e6706 	br	2375c <_dtoa_r+0xf98>
   23dc0:	d8800f17 	ldw	r2,60(sp)
   23dc4:	ba3fffc3 	ldbu	r8,-1(r23)
   23dc8:	d9000317 	ldw	r4,12(sp)
   23dcc:	10800044 	addi	r2,r2,1
   23dd0:	d8800415 	stw	r2,16(sp)
   23dd4:	003cdf06 	br	23154 <_dtoa_r+0x990>
   23dd8:	103f2d1e 	bne	r2,zero,23a90 <_dtoa_r+0x12cc>
   23ddc:	4080004c 	andi	r2,r8,1
   23de0:	103f281e 	bne	r2,zero,23a84 <_dtoa_r+0x12c0>
   23de4:	003f2a06 	br	23a90 <_dtoa_r+0x12cc>
   23de8:	d8800f17 	ldw	r2,60(sp)
   23dec:	8811883a 	mov	r8,r17
   23df0:	d9000317 	ldw	r4,12(sp)
   23df4:	10800044 	addi	r2,r2,1
   23df8:	d8800415 	stw	r2,16(sp)
   23dfc:	003cd506 	br	23154 <_dtoa_r+0x990>
   23e00:	40800e60 	cmpeqi	r2,r8,57
   23e04:	8dc00044 	addi	r23,r17,1
   23e08:	103fe31e 	bne	r2,zero,23d98 <_dtoa_r+0x15d4>
   23e0c:	053f1f16 	blt	zero,r20,23a8c <_dtoa_r+0x12c8>
   23e10:	003f1f06 	br	23a90 <_dtoa_r+0x12cc>
   23e14:	d8800217 	ldw	r2,8(sp)
   23e18:	108000c8 	cmpgei	r2,r2,3
   23e1c:	103e9326 	beq	r2,zero,2386c <_dtoa_r+0x10a8>
   23e20:	d8800b17 	ldw	r2,44(sp)
   23e24:	dd000415 	stw	r20,16(sp)
   23e28:	d8800615 	stw	r2,24(sp)
   23e2c:	003e3f06 	br	2372c <_dtoa_r+0xf68>
   23e30:	d8800217 	ldw	r2,8(sp)
   23e34:	108000c8 	cmpgei	r2,r2,3
   23e38:	103ff91e 	bne	r2,zero,23e20 <_dtoa_r+0x165c>
   23e3c:	d8800b17 	ldw	r2,44(sp)
   23e40:	003de006 	br	235c4 <_dtoa_r+0xe00>
   23e44:	04000084 	movi	r16,2
   23e48:	003b5606 	br	22ba4 <_dtoa_r+0x3e0>
   23e4c:	d8800f17 	ldw	r2,60(sp)
   23e50:	d9000317 	ldw	r4,12(sp)
   23e54:	10800044 	addi	r2,r2,1
   23e58:	d8800415 	stw	r2,16(sp)
   23e5c:	003cbd06 	br	23154 <_dtoa_r+0x990>
   23e60:	008000f4 	movhi	r2,3
   23e64:	10b91004 	addi	r2,r2,-7104
   23e68:	d8800315 	stw	r2,12(sp)
   23e6c:	003a8706 	br	2288c <_dtoa_r+0xc8>
   23e70:	000b883a 	mov	r5,zero
   23e74:	003b1b06 	br	22ae4 <_dtoa_r+0x320>
   23e78:	18c00120 	cmpeqi	r3,r3,4
   23e7c:	183d0f1e 	bne	r3,zero,232bc <_dtoa_r+0xaf8>
   23e80:	00c00f04 	movi	r3,60
   23e84:	1885c83a 	sub	r2,r3,r2
   23e88:	003d0706 	br	232a8 <_dtoa_r+0xae4>

00023e8c <__sflush_r>:
   23e8c:	2880030b 	ldhu	r2,12(r5)
   23e90:	defffb04 	addi	sp,sp,-20
   23e94:	dcc00315 	stw	r19,12(sp)
   23e98:	dc000015 	stw	r16,0(sp)
   23e9c:	dfc00415 	stw	ra,16(sp)
   23ea0:	dc800215 	stw	r18,8(sp)
   23ea4:	dc400115 	stw	r17,4(sp)
   23ea8:	10c0020c 	andi	r3,r2,8
   23eac:	2821883a 	mov	r16,r5
   23eb0:	2027883a 	mov	r19,r4
   23eb4:	18003f1e 	bne	r3,zero,23fb4 <__sflush_r+0x128>
   23eb8:	28c00117 	ldw	r3,4(r5)
   23ebc:	10820014 	ori	r2,r2,2048
   23ec0:	2880030d 	sth	r2,12(r5)
   23ec4:	00c0550e 	bge	zero,r3,2401c <__sflush_r+0x190>
   23ec8:	82000a17 	ldw	r8,40(r16)
   23ecc:	40003126 	beq	r8,zero,23f94 <__sflush_r+0x108>
   23ed0:	9c400017 	ldw	r17,0(r19)
   23ed4:	1104000c 	andi	r4,r2,4096
   23ed8:	98000015 	stw	zero,0(r19)
   23edc:	1007883a 	mov	r3,r2
   23ee0:	81400717 	ldw	r5,28(r16)
   23ee4:	2000521e 	bne	r4,zero,24030 <__sflush_r+0x1a4>
   23ee8:	01c00044 	movi	r7,1
   23eec:	000d883a 	mov	r6,zero
   23ef0:	9809883a 	mov	r4,r19
   23ef4:	403ee83a 	callr	r8
   23ef8:	10ffffd8 	cmpnei	r3,r2,-1
   23efc:	18005826 	beq	r3,zero,24060 <__sflush_r+0x1d4>
   23f00:	80c0030b 	ldhu	r3,12(r16)
   23f04:	82000a17 	ldw	r8,40(r16)
   23f08:	81400717 	ldw	r5,28(r16)
   23f0c:	18c0010c 	andi	r3,r3,4
   23f10:	18000626 	beq	r3,zero,23f2c <__sflush_r+0xa0>
   23f14:	81000117 	ldw	r4,4(r16)
   23f18:	80c00c17 	ldw	r3,48(r16)
   23f1c:	1105c83a 	sub	r2,r2,r4
   23f20:	18000226 	beq	r3,zero,23f2c <__sflush_r+0xa0>
   23f24:	80c00f17 	ldw	r3,60(r16)
   23f28:	10c5c83a 	sub	r2,r2,r3
   23f2c:	000f883a 	mov	r7,zero
   23f30:	100d883a 	mov	r6,r2
   23f34:	9809883a 	mov	r4,r19
   23f38:	403ee83a 	callr	r8
   23f3c:	10ffffd8 	cmpnei	r3,r2,-1
   23f40:	18003d1e 	bne	r3,zero,24038 <__sflush_r+0x1ac>
   23f44:	99000017 	ldw	r4,0(r19)
   23f48:	80c0030b 	ldhu	r3,12(r16)
   23f4c:	20004e26 	beq	r4,zero,24088 <__sflush_r+0x1fc>
   23f50:	21400760 	cmpeqi	r5,r4,29
   23f54:	2800021e 	bne	r5,zero,23f60 <__sflush_r+0xd4>
   23f58:	210005a0 	cmpeqi	r4,r4,22
   23f5c:	20002c26 	beq	r4,zero,24010 <__sflush_r+0x184>
   23f60:	80800417 	ldw	r2,16(r16)
   23f64:	18fdffcc 	andi	r3,r3,63487
   23f68:	80c0030d 	sth	r3,12(r16)
   23f6c:	80000115 	stw	zero,4(r16)
   23f70:	80800015 	stw	r2,0(r16)
   23f74:	81400c17 	ldw	r5,48(r16)
   23f78:	9c400015 	stw	r17,0(r19)
   23f7c:	28000526 	beq	r5,zero,23f94 <__sflush_r+0x108>
   23f80:	80801004 	addi	r2,r16,64
   23f84:	28800226 	beq	r5,r2,23f90 <__sflush_r+0x104>
   23f88:	9809883a 	mov	r4,r19
   23f8c:	00245ac0 	call	245ac <_free_r>
   23f90:	80000c15 	stw	zero,48(r16)
   23f94:	0005883a 	mov	r2,zero
   23f98:	dfc00417 	ldw	ra,16(sp)
   23f9c:	dcc00317 	ldw	r19,12(sp)
   23fa0:	dc800217 	ldw	r18,8(sp)
   23fa4:	dc400117 	ldw	r17,4(sp)
   23fa8:	dc000017 	ldw	r16,0(sp)
   23fac:	dec00504 	addi	sp,sp,20
   23fb0:	f800283a 	ret
   23fb4:	2c800417 	ldw	r18,16(r5)
   23fb8:	903ff626 	beq	r18,zero,23f94 <__sflush_r+0x108>
   23fbc:	2c400017 	ldw	r17,0(r5)
   23fc0:	108000cc 	andi	r2,r2,3
   23fc4:	2c800015 	stw	r18,0(r5)
   23fc8:	8ca3c83a 	sub	r17,r17,r18
   23fcc:	1000161e 	bne	r2,zero,24028 <__sflush_r+0x19c>
   23fd0:	28800517 	ldw	r2,20(r5)
   23fd4:	80800215 	stw	r2,8(r16)
   23fd8:	04400316 	blt	zero,r17,23fe8 <__sflush_r+0x15c>
   23fdc:	003fed06 	br	23f94 <__sflush_r+0x108>
   23fe0:	90a5883a 	add	r18,r18,r2
   23fe4:	047feb0e 	bge	zero,r17,23f94 <__sflush_r+0x108>
   23fe8:	80800917 	ldw	r2,36(r16)
   23fec:	81400717 	ldw	r5,28(r16)
   23ff0:	880f883a 	mov	r7,r17
   23ff4:	900d883a 	mov	r6,r18
   23ff8:	9809883a 	mov	r4,r19
   23ffc:	103ee83a 	callr	r2
   24000:	88a3c83a 	sub	r17,r17,r2
   24004:	00bff616 	blt	zero,r2,23fe0 <__sflush_r+0x154>
   24008:	80c0030b 	ldhu	r3,12(r16)
   2400c:	00bfffc4 	movi	r2,-1
   24010:	18c01014 	ori	r3,r3,64
   24014:	80c0030d 	sth	r3,12(r16)
   24018:	003fdf06 	br	23f98 <__sflush_r+0x10c>
   2401c:	28c00f17 	ldw	r3,60(r5)
   24020:	00ffa916 	blt	zero,r3,23ec8 <__sflush_r+0x3c>
   24024:	003fdb06 	br	23f94 <__sflush_r+0x108>
   24028:	0005883a 	mov	r2,zero
   2402c:	003fe906 	br	23fd4 <__sflush_r+0x148>
   24030:	80801417 	ldw	r2,80(r16)
   24034:	003fb506 	br	23f0c <__sflush_r+0x80>
   24038:	80c0030b 	ldhu	r3,12(r16)
   2403c:	81000417 	ldw	r4,16(r16)
   24040:	80000115 	stw	zero,4(r16)
   24044:	197dffcc 	andi	r5,r3,63487
   24048:	8140030d 	sth	r5,12(r16)
   2404c:	81000015 	stw	r4,0(r16)
   24050:	18c4000c 	andi	r3,r3,4096
   24054:	183fc726 	beq	r3,zero,23f74 <__sflush_r+0xe8>
   24058:	80801415 	stw	r2,80(r16)
   2405c:	003fc506 	br	23f74 <__sflush_r+0xe8>
   24060:	98c00017 	ldw	r3,0(r19)
   24064:	183fa626 	beq	r3,zero,23f00 <__sflush_r+0x74>
   24068:	19000760 	cmpeqi	r4,r3,29
   2406c:	20000e1e 	bne	r4,zero,240a8 <__sflush_r+0x21c>
   24070:	18c00598 	cmpnei	r3,r3,22
   24074:	18000c26 	beq	r3,zero,240a8 <__sflush_r+0x21c>
   24078:	80c0030b 	ldhu	r3,12(r16)
   2407c:	18c01014 	ori	r3,r3,64
   24080:	80c0030d 	sth	r3,12(r16)
   24084:	003fc406 	br	23f98 <__sflush_r+0x10c>
   24088:	81000417 	ldw	r4,16(r16)
   2408c:	197dffcc 	andi	r5,r3,63487
   24090:	8140030d 	sth	r5,12(r16)
   24094:	80000115 	stw	zero,4(r16)
   24098:	81000015 	stw	r4,0(r16)
   2409c:	18c4000c 	andi	r3,r3,4096
   240a0:	183fb426 	beq	r3,zero,23f74 <__sflush_r+0xe8>
   240a4:	003fec06 	br	24058 <__sflush_r+0x1cc>
   240a8:	9c400015 	stw	r17,0(r19)
   240ac:	0005883a 	mov	r2,zero
   240b0:	003fb906 	br	23f98 <__sflush_r+0x10c>

000240b4 <_fflush_r>:
   240b4:	defffd04 	addi	sp,sp,-12
   240b8:	dc000115 	stw	r16,4(sp)
   240bc:	dfc00215 	stw	ra,8(sp)
   240c0:	2021883a 	mov	r16,r4
   240c4:	20000226 	beq	r4,zero,240d0 <_fflush_r+0x1c>
   240c8:	20800e17 	ldw	r2,56(r4)
   240cc:	10000726 	beq	r2,zero,240ec <_fflush_r+0x38>
   240d0:	2880030f 	ldh	r2,12(r5)
   240d4:	10000a1e 	bne	r2,zero,24100 <_fflush_r+0x4c>
   240d8:	0005883a 	mov	r2,zero
   240dc:	dfc00217 	ldw	ra,8(sp)
   240e0:	dc000117 	ldw	r16,4(sp)
   240e4:	dec00304 	addi	sp,sp,12
   240e8:	f800283a 	ret
   240ec:	d9400015 	stw	r5,0(sp)
   240f0:	00244480 	call	24448 <__sinit>
   240f4:	d9400017 	ldw	r5,0(sp)
   240f8:	2880030f 	ldh	r2,12(r5)
   240fc:	103ff626 	beq	r2,zero,240d8 <_fflush_r+0x24>
   24100:	8009883a 	mov	r4,r16
   24104:	dfc00217 	ldw	ra,8(sp)
   24108:	dc000117 	ldw	r16,4(sp)
   2410c:	dec00304 	addi	sp,sp,12
   24110:	0023e8c1 	jmpi	23e8c <__sflush_r>

00024114 <fflush>:
   24114:	200b883a 	mov	r5,r4
   24118:	20000326 	beq	r4,zero,24128 <fflush+0x14>
   2411c:	008000f4 	movhi	r2,3
   24120:	113d3217 	ldw	r4,-2872(r2)
   24124:	00240b41 	jmpi	240b4 <_fflush_r>
   24128:	008000f4 	movhi	r2,3
   2412c:	113d3117 	ldw	r4,-2876(r2)
   24130:	014000b4 	movhi	r5,2
   24134:	29502d04 	addi	r5,r5,16564
   24138:	002494c1 	jmpi	2494c <_fwalk_reent>

0002413c <__fp_lock>:
   2413c:	0005883a 	mov	r2,zero
   24140:	f800283a 	ret

00024144 <_cleanup_r>:
   24144:	014000b4 	movhi	r5,2
   24148:	295fd304 	addi	r5,r5,32588
   2414c:	002494c1 	jmpi	2494c <_fwalk_reent>

00024150 <__sinit.part.0>:
   24150:	00c000b4 	movhi	r3,2
   24154:	20800117 	ldw	r2,4(r4)
   24158:	18d05104 	addi	r3,r3,16708
   2415c:	20c00f15 	stw	r3,60(r4)
   24160:	2140bb04 	addi	r5,r4,748
   24164:	00c000c4 	movi	r3,3
   24168:	20c0b915 	stw	r3,740(r4)
   2416c:	2140ba15 	stw	r5,744(r4)
   24170:	2000b815 	stw	zero,736(r4)
   24174:	10001705 	stb	zero,92(r2)
   24178:	10001745 	stb	zero,93(r2)
   2417c:	10001785 	stb	zero,94(r2)
   24180:	100017c5 	stb	zero,95(r2)
   24184:	10001805 	stb	zero,96(r2)
   24188:	10001845 	stb	zero,97(r2)
   2418c:	10001885 	stb	zero,98(r2)
   24190:	100018c5 	stb	zero,99(r2)
   24194:	00c00104 	movi	r3,4
   24198:	10c00315 	stw	r3,12(r2)
   2419c:	020000b4 	movhi	r8,2
   241a0:	20c00217 	ldw	r3,8(r4)
   241a4:	01c000b4 	movhi	r7,2
   241a8:	018000b4 	movhi	r6,2
   241ac:	014000b4 	movhi	r5,2
   241b0:	4219b304 	addi	r8,r8,26316
   241b4:	39d9ca04 	addi	r7,r7,26408
   241b8:	3199ea04 	addi	r6,r6,26536
   241bc:	295a0104 	addi	r5,r5,26628
   241c0:	02400074 	movhi	r9,1
   241c4:	10001915 	stw	zero,100(r2)
   241c8:	10000015 	stw	zero,0(r2)
   241cc:	10000115 	stw	zero,4(r2)
   241d0:	10000215 	stw	zero,8(r2)
   241d4:	10000415 	stw	zero,16(r2)
   241d8:	10000515 	stw	zero,20(r2)
   241dc:	10000615 	stw	zero,24(r2)
   241e0:	10800715 	stw	r2,28(r2)
   241e4:	12000815 	stw	r8,32(r2)
   241e8:	11c00915 	stw	r7,36(r2)
   241ec:	11800a15 	stw	r6,40(r2)
   241f0:	11400b15 	stw	r5,44(r2)
   241f4:	4a400284 	addi	r9,r9,10
   241f8:	1a400315 	stw	r9,12(r3)
   241fc:	18001915 	stw	zero,100(r3)
   24200:	18000015 	stw	zero,0(r3)
   24204:	18000115 	stw	zero,4(r3)
   24208:	18000215 	stw	zero,8(r3)
   2420c:	18000415 	stw	zero,16(r3)
   24210:	18001705 	stb	zero,92(r3)
   24214:	18001745 	stb	zero,93(r3)
   24218:	18001785 	stb	zero,94(r3)
   2421c:	180017c5 	stb	zero,95(r3)
   24220:	18001805 	stb	zero,96(r3)
   24224:	18001845 	stb	zero,97(r3)
   24228:	18001885 	stb	zero,98(r3)
   2422c:	180018c5 	stb	zero,99(r3)
   24230:	20800317 	ldw	r2,12(r4)
   24234:	024000b4 	movhi	r9,2
   24238:	18000515 	stw	zero,20(r3)
   2423c:	18000615 	stw	zero,24(r3)
   24240:	18c00715 	stw	r3,28(r3)
   24244:	1a000815 	stw	r8,32(r3)
   24248:	19c00915 	stw	r7,36(r3)
   2424c:	19800a15 	stw	r6,40(r3)
   24250:	19400b15 	stw	r5,44(r3)
   24254:	4a400484 	addi	r9,r9,18
   24258:	10001915 	stw	zero,100(r2)
   2425c:	10000015 	stw	zero,0(r2)
   24260:	10000115 	stw	zero,4(r2)
   24264:	10000215 	stw	zero,8(r2)
   24268:	12400315 	stw	r9,12(r2)
   2426c:	10000415 	stw	zero,16(r2)
   24270:	10000515 	stw	zero,20(r2)
   24274:	10000615 	stw	zero,24(r2)
   24278:	10001705 	stb	zero,92(r2)
   2427c:	10001745 	stb	zero,93(r2)
   24280:	10001785 	stb	zero,94(r2)
   24284:	100017c5 	stb	zero,95(r2)
   24288:	10001805 	stb	zero,96(r2)
   2428c:	10001845 	stb	zero,97(r2)
   24290:	10001885 	stb	zero,98(r2)
   24294:	100018c5 	stb	zero,99(r2)
   24298:	10800715 	stw	r2,28(r2)
   2429c:	12000815 	stw	r8,32(r2)
   242a0:	11c00915 	stw	r7,36(r2)
   242a4:	11800a15 	stw	r6,40(r2)
   242a8:	11400b15 	stw	r5,44(r2)
   242ac:	00800044 	movi	r2,1
   242b0:	20800e15 	stw	r2,56(r4)
   242b4:	f800283a 	ret

000242b8 <__fp_unlock>:
   242b8:	0005883a 	mov	r2,zero
   242bc:	f800283a 	ret

000242c0 <__sfmoreglue>:
   242c0:	defffc04 	addi	sp,sp,-16
   242c4:	dc800215 	stw	r18,8(sp)
   242c8:	2825883a 	mov	r18,r5
   242cc:	dc000015 	stw	r16,0(sp)
   242d0:	01401a04 	movi	r5,104
   242d4:	2021883a 	mov	r16,r4
   242d8:	913fffc4 	addi	r4,r18,-1
   242dc:	dfc00315 	stw	ra,12(sp)
   242e0:	dc400115 	stw	r17,4(sp)
   242e4:	00201400 	call	20140 <__mulsi3>
   242e8:	8009883a 	mov	r4,r16
   242ec:	11401d04 	addi	r5,r2,116
   242f0:	1023883a 	mov	r17,r2
   242f4:	0024bf40 	call	24bf4 <_malloc_r>
   242f8:	1021883a 	mov	r16,r2
   242fc:	10000726 	beq	r2,zero,2431c <__sfmoreglue+0x5c>
   24300:	11000304 	addi	r4,r2,12
   24304:	10000015 	stw	zero,0(r2)
   24308:	14800115 	stw	r18,4(r2)
   2430c:	11000215 	stw	r4,8(r2)
   24310:	89801a04 	addi	r6,r17,104
   24314:	000b883a 	mov	r5,zero
   24318:	00255d00 	call	255d0 <memset>
   2431c:	8005883a 	mov	r2,r16
   24320:	dfc00317 	ldw	ra,12(sp)
   24324:	dc800217 	ldw	r18,8(sp)
   24328:	dc400117 	ldw	r17,4(sp)
   2432c:	dc000017 	ldw	r16,0(sp)
   24330:	dec00404 	addi	sp,sp,16
   24334:	f800283a 	ret

00024338 <__sfp>:
   24338:	defffd04 	addi	sp,sp,-12
   2433c:	008000f4 	movhi	r2,3
   24340:	dc000015 	stw	r16,0(sp)
   24344:	143d3117 	ldw	r16,-2876(r2)
   24348:	dc400115 	stw	r17,4(sp)
   2434c:	dfc00215 	stw	ra,8(sp)
   24350:	80800e17 	ldw	r2,56(r16)
   24354:	2023883a 	mov	r17,r4
   24358:	10002b26 	beq	r2,zero,24408 <__sfp+0xd0>
   2435c:	8400b804 	addi	r16,r16,736
   24360:	80c00117 	ldw	r3,4(r16)
   24364:	80800217 	ldw	r2,8(r16)
   24368:	18ffffc4 	addi	r3,r3,-1
   2436c:	1800050e 	bge	r3,zero,24384 <__sfp+0x4c>
   24370:	00002106 	br	243f8 <__sfp+0xc0>
   24374:	18ffffc4 	addi	r3,r3,-1
   24378:	193fffd8 	cmpnei	r4,r3,-1
   2437c:	10801a04 	addi	r2,r2,104
   24380:	20001d26 	beq	r4,zero,243f8 <__sfp+0xc0>
   24384:	1100030f 	ldh	r4,12(r2)
   24388:	203ffa1e 	bne	r4,zero,24374 <__sfp+0x3c>
   2438c:	00fffff4 	movhi	r3,65535
   24390:	18c00044 	addi	r3,r3,1
   24394:	10001915 	stw	zero,100(r2)
   24398:	10000015 	stw	zero,0(r2)
   2439c:	10000115 	stw	zero,4(r2)
   243a0:	10000215 	stw	zero,8(r2)
   243a4:	10c00315 	stw	r3,12(r2)
   243a8:	10000415 	stw	zero,16(r2)
   243ac:	10000515 	stw	zero,20(r2)
   243b0:	10000615 	stw	zero,24(r2)
   243b4:	10001705 	stb	zero,92(r2)
   243b8:	10001745 	stb	zero,93(r2)
   243bc:	10001785 	stb	zero,94(r2)
   243c0:	100017c5 	stb	zero,95(r2)
   243c4:	10001805 	stb	zero,96(r2)
   243c8:	10001845 	stb	zero,97(r2)
   243cc:	10001885 	stb	zero,98(r2)
   243d0:	100018c5 	stb	zero,99(r2)
   243d4:	10000c15 	stw	zero,48(r2)
   243d8:	10000d15 	stw	zero,52(r2)
   243dc:	10001115 	stw	zero,68(r2)
   243e0:	10001215 	stw	zero,72(r2)
   243e4:	dfc00217 	ldw	ra,8(sp)
   243e8:	dc400117 	ldw	r17,4(sp)
   243ec:	dc000017 	ldw	r16,0(sp)
   243f0:	dec00304 	addi	sp,sp,12
   243f4:	f800283a 	ret
   243f8:	80800017 	ldw	r2,0(r16)
   243fc:	10000526 	beq	r2,zero,24414 <__sfp+0xdc>
   24400:	1021883a 	mov	r16,r2
   24404:	003fd606 	br	24360 <__sfp+0x28>
   24408:	8009883a 	mov	r4,r16
   2440c:	00241500 	call	24150 <__sinit.part.0>
   24410:	003fd206 	br	2435c <__sfp+0x24>
   24414:	01400104 	movi	r5,4
   24418:	8809883a 	mov	r4,r17
   2441c:	00242c00 	call	242c0 <__sfmoreglue>
   24420:	80800015 	stw	r2,0(r16)
   24424:	103ff61e 	bne	r2,zero,24400 <__sfp+0xc8>
   24428:	00c00304 	movi	r3,12
   2442c:	88c00015 	stw	r3,0(r17)
   24430:	003fec06 	br	243e4 <__sfp+0xac>

00024434 <_cleanup>:
   24434:	008000f4 	movhi	r2,3
   24438:	113d3117 	ldw	r4,-2876(r2)
   2443c:	014000b4 	movhi	r5,2
   24440:	295fd304 	addi	r5,r5,32588
   24444:	002494c1 	jmpi	2494c <_fwalk_reent>

00024448 <__sinit>:
   24448:	20800e17 	ldw	r2,56(r4)
   2444c:	10000126 	beq	r2,zero,24454 <__sinit+0xc>
   24450:	f800283a 	ret
   24454:	00241501 	jmpi	24150 <__sinit.part.0>

00024458 <__sfp_lock_acquire>:
   24458:	f800283a 	ret

0002445c <__sfp_lock_release>:
   2445c:	f800283a 	ret

00024460 <__sinit_lock_acquire>:
   24460:	f800283a 	ret

00024464 <__sinit_lock_release>:
   24464:	f800283a 	ret

00024468 <__fp_lock_all>:
   24468:	008000f4 	movhi	r2,3
   2446c:	113d3217 	ldw	r4,-2872(r2)
   24470:	014000b4 	movhi	r5,2
   24474:	29504f04 	addi	r5,r5,16700
   24478:	00248a81 	jmpi	248a8 <_fwalk>

0002447c <__fp_unlock_all>:
   2447c:	008000f4 	movhi	r2,3
   24480:	113d3217 	ldw	r4,-2872(r2)
   24484:	014000b4 	movhi	r5,2
   24488:	2950ae04 	addi	r5,r5,17080
   2448c:	00248a81 	jmpi	248a8 <_fwalk>

00024490 <_malloc_trim_r>:
   24490:	defffb04 	addi	sp,sp,-20
   24494:	dcc00315 	stw	r19,12(sp)
   24498:	04c000f4 	movhi	r19,3
   2449c:	dc800215 	stw	r18,8(sp)
   244a0:	dc400115 	stw	r17,4(sp)
   244a4:	dc000015 	stw	r16,0(sp)
   244a8:	dfc00415 	stw	ra,16(sp)
   244ac:	2821883a 	mov	r16,r5
   244b0:	9cfb5f04 	addi	r19,r19,-4740
   244b4:	2025883a 	mov	r18,r4
   244b8:	002d0b40 	call	2d0b4 <__malloc_lock>
   244bc:	98800217 	ldw	r2,8(r19)
   244c0:	14400117 	ldw	r17,4(r2)
   244c4:	00bfff04 	movi	r2,-4
   244c8:	88a2703a 	and	r17,r17,r2
   244cc:	8c21c83a 	sub	r16,r17,r16
   244d0:	8403fbc4 	addi	r16,r16,4079
   244d4:	8020d33a 	srli	r16,r16,12
   244d8:	843fffc4 	addi	r16,r16,-1
   244dc:	8020933a 	slli	r16,r16,12
   244e0:	80840008 	cmpgei	r2,r16,4096
   244e4:	10000626 	beq	r2,zero,24500 <_malloc_trim_r+0x70>
   244e8:	000b883a 	mov	r5,zero
   244ec:	9009883a 	mov	r4,r18
   244f0:	00266740 	call	26674 <_sbrk_r>
   244f4:	98c00217 	ldw	r3,8(r19)
   244f8:	1c47883a 	add	r3,r3,r17
   244fc:	10c00a26 	beq	r2,r3,24528 <_malloc_trim_r+0x98>
   24500:	9009883a 	mov	r4,r18
   24504:	002d0d80 	call	2d0d8 <__malloc_unlock>
   24508:	0005883a 	mov	r2,zero
   2450c:	dfc00417 	ldw	ra,16(sp)
   24510:	dcc00317 	ldw	r19,12(sp)
   24514:	dc800217 	ldw	r18,8(sp)
   24518:	dc400117 	ldw	r17,4(sp)
   2451c:	dc000017 	ldw	r16,0(sp)
   24520:	dec00504 	addi	sp,sp,20
   24524:	f800283a 	ret
   24528:	040bc83a 	sub	r5,zero,r16
   2452c:	9009883a 	mov	r4,r18
   24530:	00266740 	call	26674 <_sbrk_r>
   24534:	10bfffd8 	cmpnei	r2,r2,-1
   24538:	10000d26 	beq	r2,zero,24570 <_malloc_trim_r+0xe0>
   2453c:	008000f4 	movhi	r2,3
   24540:	10802a17 	ldw	r2,168(r2)
   24544:	98c00217 	ldw	r3,8(r19)
   24548:	8c23c83a 	sub	r17,r17,r16
   2454c:	8c400054 	ori	r17,r17,1
   24550:	1421c83a 	sub	r16,r2,r16
   24554:	1c400115 	stw	r17,4(r3)
   24558:	008000f4 	movhi	r2,3
   2455c:	9009883a 	mov	r4,r18
   24560:	14002a15 	stw	r16,168(r2)
   24564:	002d0d80 	call	2d0d8 <__malloc_unlock>
   24568:	00800044 	movi	r2,1
   2456c:	003fe706 	br	2450c <_malloc_trim_r+0x7c>
   24570:	000b883a 	mov	r5,zero
   24574:	9009883a 	mov	r4,r18
   24578:	00266740 	call	26674 <_sbrk_r>
   2457c:	99000217 	ldw	r4,8(r19)
   24580:	1107c83a 	sub	r3,r2,r4
   24584:	19400410 	cmplti	r5,r3,16
   24588:	283fdd1e 	bne	r5,zero,24500 <_malloc_trim_r+0x70>
   2458c:	014000f4 	movhi	r5,3
   24590:	297d3317 	ldw	r5,-2868(r5)
   24594:	18c00054 	ori	r3,r3,1
   24598:	20c00115 	stw	r3,4(r4)
   2459c:	1145c83a 	sub	r2,r2,r5
   245a0:	014000f4 	movhi	r5,3
   245a4:	28802a15 	stw	r2,168(r5)
   245a8:	003fd506 	br	24500 <_malloc_trim_r+0x70>

000245ac <_free_r>:
   245ac:	28004f26 	beq	r5,zero,246ec <_free_r+0x140>
   245b0:	defffd04 	addi	sp,sp,-12
   245b4:	dc400115 	stw	r17,4(sp)
   245b8:	dc000015 	stw	r16,0(sp)
   245bc:	2023883a 	mov	r17,r4
   245c0:	2821883a 	mov	r16,r5
   245c4:	dfc00215 	stw	ra,8(sp)
   245c8:	002d0b40 	call	2d0b4 <__malloc_lock>
   245cc:	81ffff17 	ldw	r7,-4(r16)
   245d0:	00bfff84 	movi	r2,-2
   245d4:	80fffe04 	addi	r3,r16,-8
   245d8:	3884703a 	and	r2,r7,r2
   245dc:	018000f4 	movhi	r6,3
   245e0:	1889883a 	add	r4,r3,r2
   245e4:	31bb5f04 	addi	r6,r6,-4740
   245e8:	21400117 	ldw	r5,4(r4)
   245ec:	32000217 	ldw	r8,8(r6)
   245f0:	027fff04 	movi	r9,-4
   245f4:	2a4a703a 	and	r5,r5,r9
   245f8:	41006426 	beq	r8,r4,2478c <_free_r+0x1e0>
   245fc:	21400115 	stw	r5,4(r4)
   24600:	39c0004c 	andi	r7,r7,1
   24604:	2151883a 	add	r8,r4,r5
   24608:	3800281e 	bne	r7,zero,246ac <_free_r+0x100>
   2460c:	82bffe17 	ldw	r10,-8(r16)
   24610:	42000117 	ldw	r8,4(r8)
   24614:	01c000f4 	movhi	r7,3
   24618:	1a87c83a 	sub	r3,r3,r10
   2461c:	1a400217 	ldw	r9,8(r3)
   24620:	39fb6104 	addi	r7,r7,-4732
   24624:	1285883a 	add	r2,r2,r10
   24628:	4200004c 	andi	r8,r8,1
   2462c:	49c04c26 	beq	r9,r7,24760 <_free_r+0x1b4>
   24630:	1a800317 	ldw	r10,12(r3)
   24634:	4a800315 	stw	r10,12(r9)
   24638:	52400215 	stw	r9,8(r10)
   2463c:	40007126 	beq	r8,zero,24804 <_free_r+0x258>
   24640:	11400054 	ori	r5,r2,1
   24644:	19400115 	stw	r5,4(r3)
   24648:	20800015 	stw	r2,0(r4)
   2464c:	11008028 	cmpgeui	r4,r2,512
   24650:	20002c1e 	bne	r4,zero,24704 <_free_r+0x158>
   24654:	1008d0fa 	srli	r4,r2,3
   24658:	31c00117 	ldw	r7,4(r6)
   2465c:	20800044 	addi	r2,r4,1
   24660:	200bd0ba 	srai	r5,r4,2
   24664:	100490fa 	slli	r2,r2,3
   24668:	01000044 	movi	r4,1
   2466c:	2148983a 	sll	r4,r4,r5
   24670:	3085883a 	add	r2,r6,r2
   24674:	11400017 	ldw	r5,0(r2)
   24678:	21c8b03a 	or	r4,r4,r7
   2467c:	11fffe04 	addi	r7,r2,-8
   24680:	19c00315 	stw	r7,12(r3)
   24684:	19400215 	stw	r5,8(r3)
   24688:	31000115 	stw	r4,4(r6)
   2468c:	10c00015 	stw	r3,0(r2)
   24690:	28c00315 	stw	r3,12(r5)
   24694:	8809883a 	mov	r4,r17
   24698:	dfc00217 	ldw	ra,8(sp)
   2469c:	dc400117 	ldw	r17,4(sp)
   246a0:	dc000017 	ldw	r16,0(sp)
   246a4:	dec00304 	addi	sp,sp,12
   246a8:	002d0d81 	jmpi	2d0d8 <__malloc_unlock>
   246ac:	41c00117 	ldw	r7,4(r8)
   246b0:	39c0004c 	andi	r7,r7,1
   246b4:	38000e1e 	bne	r7,zero,246f0 <_free_r+0x144>
   246b8:	01c000f4 	movhi	r7,3
   246bc:	1145883a 	add	r2,r2,r5
   246c0:	39fb6104 	addi	r7,r7,-4732
   246c4:	21400217 	ldw	r5,8(r4)
   246c8:	12400054 	ori	r9,r2,1
   246cc:	1891883a 	add	r8,r3,r2
   246d0:	29c05226 	beq	r5,r7,2481c <_free_r+0x270>
   246d4:	21000317 	ldw	r4,12(r4)
   246d8:	29000315 	stw	r4,12(r5)
   246dc:	21400215 	stw	r5,8(r4)
   246e0:	1a400115 	stw	r9,4(r3)
   246e4:	40800015 	stw	r2,0(r8)
   246e8:	003fd806 	br	2464c <_free_r+0xa0>
   246ec:	f800283a 	ret
   246f0:	11400054 	ori	r5,r2,1
   246f4:	817fff15 	stw	r5,-4(r16)
   246f8:	20800015 	stw	r2,0(r4)
   246fc:	11008028 	cmpgeui	r4,r2,512
   24700:	203fd426 	beq	r4,zero,24654 <_free_r+0xa8>
   24704:	1008d27a 	srli	r4,r2,9
   24708:	21400168 	cmpgeui	r5,r4,5
   2470c:	2800341e 	bne	r5,zero,247e0 <_free_r+0x234>
   24710:	1008d1ba 	srli	r4,r2,6
   24714:	21c00e44 	addi	r7,r4,57
   24718:	380e90fa 	slli	r7,r7,3
   2471c:	21400e04 	addi	r5,r4,56
   24720:	31cf883a 	add	r7,r6,r7
   24724:	39000017 	ldw	r4,0(r7)
   24728:	39fffe04 	addi	r7,r7,-8
   2472c:	39004226 	beq	r7,r4,24838 <_free_r+0x28c>
   24730:	01bfff04 	movi	r6,-4
   24734:	21400117 	ldw	r5,4(r4)
   24738:	298a703a 	and	r5,r5,r6
   2473c:	1140022e 	bgeu	r2,r5,24748 <_free_r+0x19c>
   24740:	21000217 	ldw	r4,8(r4)
   24744:	393ffb1e 	bne	r7,r4,24734 <_free_r+0x188>
   24748:	21c00317 	ldw	r7,12(r4)
   2474c:	19c00315 	stw	r7,12(r3)
   24750:	19000215 	stw	r4,8(r3)
   24754:	38c00215 	stw	r3,8(r7)
   24758:	20c00315 	stw	r3,12(r4)
   2475c:	003fcd06 	br	24694 <_free_r+0xe8>
   24760:	40004d1e 	bne	r8,zero,24898 <_free_r+0x2ec>
   24764:	21800317 	ldw	r6,12(r4)
   24768:	21000217 	ldw	r4,8(r4)
   2476c:	2885883a 	add	r2,r5,r2
   24770:	11400054 	ori	r5,r2,1
   24774:	21800315 	stw	r6,12(r4)
   24778:	31000215 	stw	r4,8(r6)
   2477c:	19400115 	stw	r5,4(r3)
   24780:	1887883a 	add	r3,r3,r2
   24784:	18800015 	stw	r2,0(r3)
   24788:	003fc206 	br	24694 <_free_r+0xe8>
   2478c:	39c0004c 	andi	r7,r7,1
   24790:	1145883a 	add	r2,r2,r5
   24794:	3800071e 	bne	r7,zero,247b4 <_free_r+0x208>
   24798:	81fffe17 	ldw	r7,-8(r16)
   2479c:	19c7c83a 	sub	r3,r3,r7
   247a0:	19000317 	ldw	r4,12(r3)
   247a4:	19400217 	ldw	r5,8(r3)
   247a8:	11c5883a 	add	r2,r2,r7
   247ac:	29000315 	stw	r4,12(r5)
   247b0:	21400215 	stw	r5,8(r4)
   247b4:	010000f4 	movhi	r4,3
   247b8:	11400054 	ori	r5,r2,1
   247bc:	213d3417 	ldw	r4,-2864(r4)
   247c0:	19400115 	stw	r5,4(r3)
   247c4:	30c00215 	stw	r3,8(r6)
   247c8:	113fb236 	bltu	r2,r4,24694 <_free_r+0xe8>
   247cc:	008000f4 	movhi	r2,3
   247d0:	11402417 	ldw	r5,144(r2)
   247d4:	8809883a 	mov	r4,r17
   247d8:	00244900 	call	24490 <_malloc_trim_r>
   247dc:	003fad06 	br	24694 <_free_r+0xe8>
   247e0:	21400568 	cmpgeui	r5,r4,21
   247e4:	28000926 	beq	r5,zero,2480c <_free_r+0x260>
   247e8:	21401568 	cmpgeui	r5,r4,85
   247ec:	2800191e 	bne	r5,zero,24854 <_free_r+0x2a8>
   247f0:	1008d33a 	srli	r4,r2,12
   247f4:	21c01bc4 	addi	r7,r4,111
   247f8:	21401b84 	addi	r5,r4,110
   247fc:	380e90fa 	slli	r7,r7,3
   24800:	003fc706 	br	24720 <_free_r+0x174>
   24804:	1145883a 	add	r2,r2,r5
   24808:	003fae06 	br	246c4 <_free_r+0x118>
   2480c:	21c01704 	addi	r7,r4,92
   24810:	214016c4 	addi	r5,r4,91
   24814:	380e90fa 	slli	r7,r7,3
   24818:	003fc106 	br	24720 <_free_r+0x174>
   2481c:	30c00515 	stw	r3,20(r6)
   24820:	30c00415 	stw	r3,16(r6)
   24824:	19c00315 	stw	r7,12(r3)
   24828:	19c00215 	stw	r7,8(r3)
   2482c:	1a400115 	stw	r9,4(r3)
   24830:	40800015 	stw	r2,0(r8)
   24834:	003f9706 	br	24694 <_free_r+0xe8>
   24838:	280bd0ba 	srai	r5,r5,2
   2483c:	00800044 	movi	r2,1
   24840:	32000117 	ldw	r8,4(r6)
   24844:	114a983a 	sll	r5,r2,r5
   24848:	2a0ab03a 	or	r5,r5,r8
   2484c:	31400115 	stw	r5,4(r6)
   24850:	003fbe06 	br	2474c <_free_r+0x1a0>
   24854:	21405568 	cmpgeui	r5,r4,341
   24858:	2800051e 	bne	r5,zero,24870 <_free_r+0x2c4>
   2485c:	1008d3fa 	srli	r4,r2,15
   24860:	21c01e04 	addi	r7,r4,120
   24864:	21401dc4 	addi	r5,r4,119
   24868:	380e90fa 	slli	r7,r7,3
   2486c:	003fac06 	br	24720 <_free_r+0x174>
   24870:	21015568 	cmpgeui	r4,r4,1365
   24874:	2000051e 	bne	r4,zero,2488c <_free_r+0x2e0>
   24878:	1008d4ba 	srli	r4,r2,18
   2487c:	21c01f44 	addi	r7,r4,125
   24880:	21401f04 	addi	r5,r4,124
   24884:	380e90fa 	slli	r7,r7,3
   24888:	003fa506 	br	24720 <_free_r+0x174>
   2488c:	01c0fe04 	movi	r7,1016
   24890:	01401f84 	movi	r5,126
   24894:	003fa206 	br	24720 <_free_r+0x174>
   24898:	11400054 	ori	r5,r2,1
   2489c:	19400115 	stw	r5,4(r3)
   248a0:	20800015 	stw	r2,0(r4)
   248a4:	003f7b06 	br	24694 <_free_r+0xe8>

000248a8 <_fwalk>:
   248a8:	defffa04 	addi	sp,sp,-24
   248ac:	dc800215 	stw	r18,8(sp)
   248b0:	dfc00515 	stw	ra,20(sp)
   248b4:	dd000415 	stw	r20,16(sp)
   248b8:	dcc00315 	stw	r19,12(sp)
   248bc:	dc400115 	stw	r17,4(sp)
   248c0:	dc000015 	stw	r16,0(sp)
   248c4:	2480b804 	addi	r18,r4,736
   248c8:	90001e26 	beq	r18,zero,24944 <_fwalk+0x9c>
   248cc:	2827883a 	mov	r19,r5
   248d0:	0029883a 	mov	r20,zero
   248d4:	94400117 	ldw	r17,4(r18)
   248d8:	94000217 	ldw	r16,8(r18)
   248dc:	8c7fffc4 	addi	r17,r17,-1
   248e0:	88000d16 	blt	r17,zero,24918 <_fwalk+0x70>
   248e4:	8080030b 	ldhu	r2,12(r16)
   248e8:	8c7fffc4 	addi	r17,r17,-1
   248ec:	108000b0 	cmpltui	r2,r2,2
   248f0:	1000061e 	bne	r2,zero,2490c <_fwalk+0x64>
   248f4:	8080038f 	ldh	r2,14(r16)
   248f8:	8009883a 	mov	r4,r16
   248fc:	10bfffe0 	cmpeqi	r2,r2,-1
   24900:	1000021e 	bne	r2,zero,2490c <_fwalk+0x64>
   24904:	983ee83a 	callr	r19
   24908:	a0a8b03a 	or	r20,r20,r2
   2490c:	88bfffd8 	cmpnei	r2,r17,-1
   24910:	84001a04 	addi	r16,r16,104
   24914:	103ff31e 	bne	r2,zero,248e4 <_fwalk+0x3c>
   24918:	94800017 	ldw	r18,0(r18)
   2491c:	903fed1e 	bne	r18,zero,248d4 <_fwalk+0x2c>
   24920:	a005883a 	mov	r2,r20
   24924:	dfc00517 	ldw	ra,20(sp)
   24928:	dd000417 	ldw	r20,16(sp)
   2492c:	dcc00317 	ldw	r19,12(sp)
   24930:	dc800217 	ldw	r18,8(sp)
   24934:	dc400117 	ldw	r17,4(sp)
   24938:	dc000017 	ldw	r16,0(sp)
   2493c:	dec00604 	addi	sp,sp,24
   24940:	f800283a 	ret
   24944:	0029883a 	mov	r20,zero
   24948:	003ff506 	br	24920 <_fwalk+0x78>

0002494c <_fwalk_reent>:
   2494c:	defff904 	addi	sp,sp,-28
   24950:	dc800215 	stw	r18,8(sp)
   24954:	dfc00615 	stw	ra,24(sp)
   24958:	dd400515 	stw	r21,20(sp)
   2495c:	dd000415 	stw	r20,16(sp)
   24960:	dcc00315 	stw	r19,12(sp)
   24964:	dc400115 	stw	r17,4(sp)
   24968:	dc000015 	stw	r16,0(sp)
   2496c:	2480b804 	addi	r18,r4,736
   24970:	90002126 	beq	r18,zero,249f8 <_fwalk_reent+0xac>
   24974:	2829883a 	mov	r20,r5
   24978:	2027883a 	mov	r19,r4
   2497c:	002b883a 	mov	r21,zero
   24980:	94400117 	ldw	r17,4(r18)
   24984:	94000217 	ldw	r16,8(r18)
   24988:	8c7fffc4 	addi	r17,r17,-1
   2498c:	88000e16 	blt	r17,zero,249c8 <_fwalk_reent+0x7c>
   24990:	8080030b 	ldhu	r2,12(r16)
   24994:	8c7fffc4 	addi	r17,r17,-1
   24998:	108000b0 	cmpltui	r2,r2,2
   2499c:	1000071e 	bne	r2,zero,249bc <_fwalk_reent+0x70>
   249a0:	8080038f 	ldh	r2,14(r16)
   249a4:	800b883a 	mov	r5,r16
   249a8:	9809883a 	mov	r4,r19
   249ac:	10bfffe0 	cmpeqi	r2,r2,-1
   249b0:	1000021e 	bne	r2,zero,249bc <_fwalk_reent+0x70>
   249b4:	a03ee83a 	callr	r20
   249b8:	a8aab03a 	or	r21,r21,r2
   249bc:	88bfffd8 	cmpnei	r2,r17,-1
   249c0:	84001a04 	addi	r16,r16,104
   249c4:	103ff21e 	bne	r2,zero,24990 <_fwalk_reent+0x44>
   249c8:	94800017 	ldw	r18,0(r18)
   249cc:	903fec1e 	bne	r18,zero,24980 <_fwalk_reent+0x34>
   249d0:	a805883a 	mov	r2,r21
   249d4:	dfc00617 	ldw	ra,24(sp)
   249d8:	dd400517 	ldw	r21,20(sp)
   249dc:	dd000417 	ldw	r20,16(sp)
   249e0:	dcc00317 	ldw	r19,12(sp)
   249e4:	dc800217 	ldw	r18,8(sp)
   249e8:	dc400117 	ldw	r17,4(sp)
   249ec:	dc000017 	ldw	r16,0(sp)
   249f0:	dec00704 	addi	sp,sp,28
   249f4:	f800283a 	ret
   249f8:	002b883a 	mov	r21,zero
   249fc:	003ff406 	br	249d0 <_fwalk_reent+0x84>

00024a00 <__localeconv_l>:
   24a00:	20803c04 	addi	r2,r4,240
   24a04:	f800283a 	ret

00024a08 <_localeconv_r>:
   24a08:	008000f4 	movhi	r2,3
   24a0c:	10bc9d04 	addi	r2,r2,-3468
   24a10:	f800283a 	ret

00024a14 <localeconv>:
   24a14:	008000f4 	movhi	r2,3
   24a18:	10bc9d04 	addi	r2,r2,-3468
   24a1c:	f800283a 	ret

00024a20 <__swhatbuf_r>:
   24a20:	deffea04 	addi	sp,sp,-88
   24a24:	dc001215 	stw	r16,72(sp)
   24a28:	2821883a 	mov	r16,r5
   24a2c:	2940038f 	ldh	r5,14(r5)
   24a30:	dc801415 	stw	r18,80(sp)
   24a34:	dc401315 	stw	r17,76(sp)
   24a38:	dfc01515 	stw	ra,84(sp)
   24a3c:	3023883a 	mov	r17,r6
   24a40:	3825883a 	mov	r18,r7
   24a44:	28001016 	blt	r5,zero,24a88 <__swhatbuf_r+0x68>
   24a48:	d80d883a 	mov	r6,sp
   24a4c:	00282440 	call	28244 <_fstat_r>
   24a50:	10000d16 	blt	r2,zero,24a88 <__swhatbuf_r+0x68>
   24a54:	d8c00117 	ldw	r3,4(sp)
   24a58:	00820004 	movi	r2,2048
   24a5c:	18fc000c 	andi	r3,r3,61440
   24a60:	18c80020 	cmpeqi	r3,r3,8192
   24a64:	90c00015 	stw	r3,0(r18)
   24a68:	00c10004 	movi	r3,1024
   24a6c:	88c00015 	stw	r3,0(r17)
   24a70:	dfc01517 	ldw	ra,84(sp)
   24a74:	dc801417 	ldw	r18,80(sp)
   24a78:	dc401317 	ldw	r17,76(sp)
   24a7c:	dc001217 	ldw	r16,72(sp)
   24a80:	dec01604 	addi	sp,sp,88
   24a84:	f800283a 	ret
   24a88:	8080030b 	ldhu	r2,12(r16)
   24a8c:	90000015 	stw	zero,0(r18)
   24a90:	1080200c 	andi	r2,r2,128
   24a94:	10000426 	beq	r2,zero,24aa8 <__swhatbuf_r+0x88>
   24a98:	00801004 	movi	r2,64
   24a9c:	88800015 	stw	r2,0(r17)
   24aa0:	0005883a 	mov	r2,zero
   24aa4:	003ff206 	br	24a70 <__swhatbuf_r+0x50>
   24aa8:	00810004 	movi	r2,1024
   24aac:	88800015 	stw	r2,0(r17)
   24ab0:	0005883a 	mov	r2,zero
   24ab4:	003fee06 	br	24a70 <__swhatbuf_r+0x50>

00024ab8 <__smakebuf_r>:
   24ab8:	28c0030b 	ldhu	r3,12(r5)
   24abc:	defffa04 	addi	sp,sp,-24
   24ac0:	dc000215 	stw	r16,8(sp)
   24ac4:	dfc00515 	stw	ra,20(sp)
   24ac8:	dc800415 	stw	r18,16(sp)
   24acc:	dc400315 	stw	r17,12(sp)
   24ad0:	18c0008c 	andi	r3,r3,2
   24ad4:	2821883a 	mov	r16,r5
   24ad8:	18000b26 	beq	r3,zero,24b08 <__smakebuf_r+0x50>
   24adc:	28c010c4 	addi	r3,r5,67
   24ae0:	28c00015 	stw	r3,0(r5)
   24ae4:	28c00415 	stw	r3,16(r5)
   24ae8:	00c00044 	movi	r3,1
   24aec:	28c00515 	stw	r3,20(r5)
   24af0:	dfc00517 	ldw	ra,20(sp)
   24af4:	dc800417 	ldw	r18,16(sp)
   24af8:	dc400317 	ldw	r17,12(sp)
   24afc:	dc000217 	ldw	r16,8(sp)
   24b00:	dec00604 	addi	sp,sp,24
   24b04:	f800283a 	ret
   24b08:	d9c00104 	addi	r7,sp,4
   24b0c:	d80d883a 	mov	r6,sp
   24b10:	2023883a 	mov	r17,r4
   24b14:	0024a200 	call	24a20 <__swhatbuf_r>
   24b18:	1025883a 	mov	r18,r2
   24b1c:	d8800117 	ldw	r2,4(sp)
   24b20:	1000131e 	bne	r2,zero,24b70 <__smakebuf_r+0xb8>
   24b24:	d9400017 	ldw	r5,0(sp)
   24b28:	8809883a 	mov	r4,r17
   24b2c:	0024bf40 	call	24bf4 <_malloc_r>
   24b30:	10001c26 	beq	r2,zero,24ba4 <__smakebuf_r+0xec>
   24b34:	010000b4 	movhi	r4,2
   24b38:	21105104 	addi	r4,r4,16708
   24b3c:	80c0030b 	ldhu	r3,12(r16)
   24b40:	89000f15 	stw	r4,60(r17)
   24b44:	80800015 	stw	r2,0(r16)
   24b48:	80800415 	stw	r2,16(r16)
   24b4c:	d8800017 	ldw	r2,0(sp)
   24b50:	d9400117 	ldw	r5,4(sp)
   24b54:	18c02014 	ori	r3,r3,128
   24b58:	80c0030d 	sth	r3,12(r16)
   24b5c:	80800515 	stw	r2,20(r16)
   24b60:	28001c1e 	bne	r5,zero,24bd4 <__smakebuf_r+0x11c>
   24b64:	90c6b03a 	or	r3,r18,r3
   24b68:	80c0030d 	sth	r3,12(r16)
   24b6c:	003fe006 	br	24af0 <__smakebuf_r+0x38>
   24b70:	8140038f 	ldh	r5,14(r16)
   24b74:	8809883a 	mov	r4,r17
   24b78:	00287780 	call	28778 <_isatty_r>
   24b7c:	103fe926 	beq	r2,zero,24b24 <__smakebuf_r+0x6c>
   24b80:	8080030b 	ldhu	r2,12(r16)
   24b84:	80c010c4 	addi	r3,r16,67
   24b88:	80c00015 	stw	r3,0(r16)
   24b8c:	10800054 	ori	r2,r2,1
   24b90:	8080030d 	sth	r2,12(r16)
   24b94:	00800044 	movi	r2,1
   24b98:	80c00415 	stw	r3,16(r16)
   24b9c:	80800515 	stw	r2,20(r16)
   24ba0:	003fe006 	br	24b24 <__smakebuf_r+0x6c>
   24ba4:	8080030b 	ldhu	r2,12(r16)
   24ba8:	10c0800c 	andi	r3,r2,512
   24bac:	183fd01e 	bne	r3,zero,24af0 <__smakebuf_r+0x38>
   24bb0:	10bfff0c 	andi	r2,r2,65532
   24bb4:	10800094 	ori	r2,r2,2
   24bb8:	80c010c4 	addi	r3,r16,67
   24bbc:	8080030d 	sth	r2,12(r16)
   24bc0:	00800044 	movi	r2,1
   24bc4:	80c00015 	stw	r3,0(r16)
   24bc8:	80c00415 	stw	r3,16(r16)
   24bcc:	80800515 	stw	r2,20(r16)
   24bd0:	003fc706 	br	24af0 <__smakebuf_r+0x38>
   24bd4:	8140038f 	ldh	r5,14(r16)
   24bd8:	8809883a 	mov	r4,r17
   24bdc:	00287780 	call	28778 <_isatty_r>
   24be0:	80c0030b 	ldhu	r3,12(r16)
   24be4:	103fdf26 	beq	r2,zero,24b64 <__smakebuf_r+0xac>
   24be8:	18ffff0c 	andi	r3,r3,65532
   24bec:	18c00054 	ori	r3,r3,1
   24bf0:	003fdc06 	br	24b64 <__smakebuf_r+0xac>

00024bf4 <_malloc_r>:
   24bf4:	defff604 	addi	sp,sp,-40
   24bf8:	dc400115 	stw	r17,4(sp)
   24bfc:	2c4002c4 	addi	r17,r5,11
   24c00:	dc800215 	stw	r18,8(sp)
   24c04:	dfc00915 	stw	ra,36(sp)
   24c08:	df000815 	stw	fp,32(sp)
   24c0c:	ddc00715 	stw	r23,28(sp)
   24c10:	dd800615 	stw	r22,24(sp)
   24c14:	dd400515 	stw	r21,20(sp)
   24c18:	dd000415 	stw	r20,16(sp)
   24c1c:	dcc00315 	stw	r19,12(sp)
   24c20:	dc000015 	stw	r16,0(sp)
   24c24:	888005e8 	cmpgeui	r2,r17,23
   24c28:	2025883a 	mov	r18,r4
   24c2c:	10001b1e 	bne	r2,zero,24c9c <_malloc_r+0xa8>
   24c30:	29400468 	cmpgeui	r5,r5,17
   24c34:	2800951e 	bne	r5,zero,24e8c <_malloc_r+0x298>
   24c38:	002d0b40 	call	2d0b4 <__malloc_lock>
   24c3c:	04400404 	movi	r17,16
   24c40:	00800604 	movi	r2,24
   24c44:	01800084 	movi	r6,2
   24c48:	04c000f4 	movhi	r19,3
   24c4c:	9cfb5f04 	addi	r19,r19,-4740
   24c50:	9885883a 	add	r2,r19,r2
   24c54:	14000117 	ldw	r16,4(r2)
   24c58:	10fffe04 	addi	r3,r2,-8
   24c5c:	80c09e26 	beq	r16,r3,24ed8 <_malloc_r+0x2e4>
   24c60:	80800117 	ldw	r2,4(r16)
   24c64:	81000317 	ldw	r4,12(r16)
   24c68:	00ffff04 	movi	r3,-4
   24c6c:	10c4703a 	and	r2,r2,r3
   24c70:	81400217 	ldw	r5,8(r16)
   24c74:	8085883a 	add	r2,r16,r2
   24c78:	10c00117 	ldw	r3,4(r2)
   24c7c:	29000315 	stw	r4,12(r5)
   24c80:	21400215 	stw	r5,8(r4)
   24c84:	18c00054 	ori	r3,r3,1
   24c88:	10c00115 	stw	r3,4(r2)
   24c8c:	9009883a 	mov	r4,r18
   24c90:	002d0d80 	call	2d0d8 <__malloc_unlock>
   24c94:	80800204 	addi	r2,r16,8
   24c98:	00007f06 	br	24e98 <_malloc_r+0x2a4>
   24c9c:	00bffe04 	movi	r2,-8
   24ca0:	88a2703a 	and	r17,r17,r2
   24ca4:	88007916 	blt	r17,zero,24e8c <_malloc_r+0x298>
   24ca8:	89407836 	bltu	r17,r5,24e8c <_malloc_r+0x298>
   24cac:	002d0b40 	call	2d0b4 <__malloc_lock>
   24cb0:	88807e28 	cmpgeui	r2,r17,504
   24cb4:	10013326 	beq	r2,zero,25184 <_malloc_r+0x590>
   24cb8:	8804d27a 	srli	r2,r17,9
   24cbc:	10008226 	beq	r2,zero,24ec8 <_malloc_r+0x2d4>
   24cc0:	10c00168 	cmpgeui	r3,r2,5
   24cc4:	1801151e 	bne	r3,zero,2511c <_malloc_r+0x528>
   24cc8:	8804d1ba 	srli	r2,r17,6
   24ccc:	11800e44 	addi	r6,r2,57
   24cd0:	300a90fa 	slli	r5,r6,3
   24cd4:	12000e04 	addi	r8,r2,56
   24cd8:	04c000f4 	movhi	r19,3
   24cdc:	9cfb5f04 	addi	r19,r19,-4740
   24ce0:	994b883a 	add	r5,r19,r5
   24ce4:	2c000117 	ldw	r16,4(r5)
   24ce8:	297ffe04 	addi	r5,r5,-8
   24cec:	2c001126 	beq	r5,r16,24d34 <_malloc_r+0x140>
   24cf0:	80800117 	ldw	r2,4(r16)
   24cf4:	00ffff04 	movi	r3,-4
   24cf8:	10c4703a 	and	r2,r2,r3
   24cfc:	1447c83a 	sub	r3,r2,r17
   24d00:	19000408 	cmpgei	r4,r3,16
   24d04:	2000e81e 	bne	r4,zero,250a8 <_malloc_r+0x4b4>
   24d08:	1800e90e 	bge	r3,zero,250b0 <_malloc_r+0x4bc>
   24d0c:	01ffff04 	movi	r7,-4
   24d10:	00000606 	br	24d2c <_malloc_r+0x138>
   24d14:	80800117 	ldw	r2,4(r16)
   24d18:	11c4703a 	and	r2,r2,r7
   24d1c:	1447c83a 	sub	r3,r2,r17
   24d20:	19000408 	cmpgei	r4,r3,16
   24d24:	2000e01e 	bne	r4,zero,250a8 <_malloc_r+0x4b4>
   24d28:	1800e10e 	bge	r3,zero,250b0 <_malloc_r+0x4bc>
   24d2c:	84000317 	ldw	r16,12(r16)
   24d30:	2c3ff81e 	bne	r5,r16,24d14 <_malloc_r+0x120>
   24d34:	9c000417 	ldw	r16,16(r19)
   24d38:	020000f4 	movhi	r8,3
   24d3c:	423b6104 	addi	r8,r8,-4732
   24d40:	82006c26 	beq	r16,r8,24ef4 <_malloc_r+0x300>
   24d44:	80c00117 	ldw	r3,4(r16)
   24d48:	00bfff04 	movi	r2,-4
   24d4c:	1884703a 	and	r2,r3,r2
   24d50:	1447c83a 	sub	r3,r2,r17
   24d54:	19000410 	cmplti	r4,r3,16
   24d58:	20011526 	beq	r4,zero,251b0 <_malloc_r+0x5bc>
   24d5c:	9a000515 	stw	r8,20(r19)
   24d60:	9a000415 	stw	r8,16(r19)
   24d64:	18010a0e 	bge	r3,zero,25190 <_malloc_r+0x59c>
   24d68:	10c08028 	cmpgeui	r3,r2,512
   24d6c:	1800d21e 	bne	r3,zero,250b8 <_malloc_r+0x4c4>
   24d70:	1004d0fa 	srli	r2,r2,3
   24d74:	99400117 	ldw	r5,4(r19)
   24d78:	10c00044 	addi	r3,r2,1
   24d7c:	1009d0ba 	srai	r4,r2,2
   24d80:	180690fa 	slli	r3,r3,3
   24d84:	00800044 	movi	r2,1
   24d88:	1104983a 	sll	r2,r2,r4
   24d8c:	98c7883a 	add	r3,r19,r3
   24d90:	19000017 	ldw	r4,0(r3)
   24d94:	1144b03a 	or	r2,r2,r5
   24d98:	197ffe04 	addi	r5,r3,-8
   24d9c:	81400315 	stw	r5,12(r16)
   24da0:	81000215 	stw	r4,8(r16)
   24da4:	98800115 	stw	r2,4(r19)
   24da8:	1c000015 	stw	r16,0(r3)
   24dac:	24000315 	stw	r16,12(r4)
   24db0:	3007d0ba 	srai	r3,r6,2
   24db4:	01000044 	movi	r4,1
   24db8:	20c8983a 	sll	r4,r4,r3
   24dbc:	11005236 	bltu	r2,r4,24f08 <_malloc_r+0x314>
   24dc0:	2086703a 	and	r3,r4,r2
   24dc4:	18000a1e 	bne	r3,zero,24df0 <_malloc_r+0x1fc>
   24dc8:	00ffff04 	movi	r3,-4
   24dcc:	2109883a 	add	r4,r4,r4
   24dd0:	30cc703a 	and	r6,r6,r3
   24dd4:	2086703a 	and	r3,r4,r2
   24dd8:	31800104 	addi	r6,r6,4
   24ddc:	1800041e 	bne	r3,zero,24df0 <_malloc_r+0x1fc>
   24de0:	2109883a 	add	r4,r4,r4
   24de4:	2086703a 	and	r3,r4,r2
   24de8:	31800104 	addi	r6,r6,4
   24dec:	183ffc26 	beq	r3,zero,24de0 <_malloc_r+0x1ec>
   24df0:	027fff04 	movi	r9,-4
   24df4:	301490fa 	slli	r10,r6,3
   24df8:	3017883a 	mov	r11,r6
   24dfc:	9a95883a 	add	r10,r19,r10
   24e00:	500f883a 	mov	r7,r10
   24e04:	3c000317 	ldw	r16,12(r7)
   24e08:	3c00cd26 	beq	r7,r16,25140 <_malloc_r+0x54c>
   24e0c:	80800117 	ldw	r2,4(r16)
   24e10:	1244703a 	and	r2,r2,r9
   24e14:	1447c83a 	sub	r3,r2,r17
   24e18:	19400408 	cmpgei	r5,r3,16
   24e1c:	2800081e 	bne	r5,zero,24e40 <_malloc_r+0x24c>
   24e20:	1800cc0e 	bge	r3,zero,25154 <_malloc_r+0x560>
   24e24:	84000317 	ldw	r16,12(r16)
   24e28:	3c00c526 	beq	r7,r16,25140 <_malloc_r+0x54c>
   24e2c:	80800117 	ldw	r2,4(r16)
   24e30:	1244703a 	and	r2,r2,r9
   24e34:	1447c83a 	sub	r3,r2,r17
   24e38:	19400410 	cmplti	r5,r3,16
   24e3c:	283ff81e 	bne	r5,zero,24e20 <_malloc_r+0x22c>
   24e40:	81000317 	ldw	r4,12(r16)
   24e44:	81400217 	ldw	r5,8(r16)
   24e48:	89800054 	ori	r6,r17,1
   24e4c:	81800115 	stw	r6,4(r16)
   24e50:	29000315 	stw	r4,12(r5)
   24e54:	21400215 	stw	r5,8(r4)
   24e58:	8463883a 	add	r17,r16,r17
   24e5c:	9c400515 	stw	r17,20(r19)
   24e60:	9c400415 	stw	r17,16(r19)
   24e64:	19000054 	ori	r4,r3,1
   24e68:	89000115 	stw	r4,4(r17)
   24e6c:	8085883a 	add	r2,r16,r2
   24e70:	8a000315 	stw	r8,12(r17)
   24e74:	8a000215 	stw	r8,8(r17)
   24e78:	10c00015 	stw	r3,0(r2)
   24e7c:	9009883a 	mov	r4,r18
   24e80:	002d0d80 	call	2d0d8 <__malloc_unlock>
   24e84:	80800204 	addi	r2,r16,8
   24e88:	00000306 	br	24e98 <_malloc_r+0x2a4>
   24e8c:	00800304 	movi	r2,12
   24e90:	90800015 	stw	r2,0(r18)
   24e94:	0005883a 	mov	r2,zero
   24e98:	dfc00917 	ldw	ra,36(sp)
   24e9c:	df000817 	ldw	fp,32(sp)
   24ea0:	ddc00717 	ldw	r23,28(sp)
   24ea4:	dd800617 	ldw	r22,24(sp)
   24ea8:	dd400517 	ldw	r21,20(sp)
   24eac:	dd000417 	ldw	r20,16(sp)
   24eb0:	dcc00317 	ldw	r19,12(sp)
   24eb4:	dc800217 	ldw	r18,8(sp)
   24eb8:	dc400117 	ldw	r17,4(sp)
   24ebc:	dc000017 	ldw	r16,0(sp)
   24ec0:	dec00a04 	addi	sp,sp,40
   24ec4:	f800283a 	ret
   24ec8:	01408004 	movi	r5,512
   24ecc:	01801004 	movi	r6,64
   24ed0:	02000fc4 	movi	r8,63
   24ed4:	003f8006 	br	24cd8 <_malloc_r+0xe4>
   24ed8:	14000317 	ldw	r16,12(r2)
   24edc:	31800084 	addi	r6,r6,2
   24ee0:	143f5f1e 	bne	r2,r16,24c60 <_malloc_r+0x6c>
   24ee4:	9c000417 	ldw	r16,16(r19)
   24ee8:	020000f4 	movhi	r8,3
   24eec:	423b6104 	addi	r8,r8,-4732
   24ef0:	823f941e 	bne	r16,r8,24d44 <_malloc_r+0x150>
   24ef4:	3007d0ba 	srai	r3,r6,2
   24ef8:	01000044 	movi	r4,1
   24efc:	98800117 	ldw	r2,4(r19)
   24f00:	20c8983a 	sll	r4,r4,r3
   24f04:	113fae2e 	bgeu	r2,r4,24dc0 <_malloc_r+0x1cc>
   24f08:	9c000217 	ldw	r16,8(r19)
   24f0c:	00bfff04 	movi	r2,-4
   24f10:	85000117 	ldw	r20,4(r16)
   24f14:	a0ac703a 	and	r22,r20,r2
   24f18:	b4400336 	bltu	r22,r17,24f28 <_malloc_r+0x334>
   24f1c:	b445c83a 	sub	r2,r22,r17
   24f20:	10c00408 	cmpgei	r3,r2,16
   24f24:	1800561e 	bne	r3,zero,25080 <_malloc_r+0x48c>
   24f28:	008000f4 	movhi	r2,3
   24f2c:	10bd3317 	ldw	r2,-2868(r2)
   24f30:	00c000f4 	movhi	r3,3
   24f34:	1d002417 	ldw	r20,144(r3)
   24f38:	10bfffd8 	cmpnei	r2,r2,-1
   24f3c:	85ab883a 	add	r21,r16,r22
   24f40:	8d29883a 	add	r20,r17,r20
   24f44:	1000c826 	beq	r2,zero,25268 <_malloc_r+0x674>
   24f48:	a50403c4 	addi	r20,r20,4111
   24f4c:	00bc0004 	movi	r2,-4096
   24f50:	a0a8703a 	and	r20,r20,r2
   24f54:	a00b883a 	mov	r5,r20
   24f58:	9009883a 	mov	r4,r18
   24f5c:	00266740 	call	26674 <_sbrk_r>
   24f60:	102f883a 	mov	r23,r2
   24f64:	10bfffd8 	cmpnei	r2,r2,-1
   24f68:	10009a26 	beq	r2,zero,251d4 <_malloc_r+0x5e0>
   24f6c:	bd409836 	bltu	r23,r21,251d0 <_malloc_r+0x5dc>
   24f70:	008000f4 	movhi	r2,3
   24f74:	10802a17 	ldw	r2,168(r2)
   24f78:	00c000f4 	movhi	r3,3
   24f7c:	a085883a 	add	r2,r20,r2
   24f80:	18802a15 	stw	r2,168(r3)
   24f84:	1007883a 	mov	r3,r2
   24f88:	adc0dd26 	beq	r21,r23,25300 <_malloc_r+0x70c>
   24f8c:	008000f4 	movhi	r2,3
   24f90:	10bd3317 	ldw	r2,-2868(r2)
   24f94:	10bfffd8 	cmpnei	r2,r2,-1
   24f98:	1000e026 	beq	r2,zero,2531c <_malloc_r+0x728>
   24f9c:	bd6bc83a 	sub	r21,r23,r21
   24fa0:	a8c7883a 	add	r3,r21,r3
   24fa4:	008000f4 	movhi	r2,3
   24fa8:	10c02a15 	stw	r3,168(r2)
   24fac:	bf0001cc 	andi	fp,r23,7
   24fb0:	e000b626 	beq	fp,zero,2528c <_malloc_r+0x698>
   24fb4:	bf2fc83a 	sub	r23,r23,fp
   24fb8:	bdc00204 	addi	r23,r23,8
   24fbc:	00840204 	movi	r2,4104
   24fc0:	1705c83a 	sub	r2,r2,fp
   24fc4:	bd29883a 	add	r20,r23,r20
   24fc8:	1505c83a 	sub	r2,r2,r20
   24fcc:	1543ffcc 	andi	r21,r2,4095
   24fd0:	a80b883a 	mov	r5,r21
   24fd4:	9009883a 	mov	r4,r18
   24fd8:	00266740 	call	26674 <_sbrk_r>
   24fdc:	10ffffe0 	cmpeqi	r3,r2,-1
   24fe0:	1800e41e 	bne	r3,zero,25374 <_malloc_r+0x780>
   24fe4:	15c5c83a 	sub	r2,r2,r23
   24fe8:	1569883a 	add	r20,r2,r21
   24fec:	008000f4 	movhi	r2,3
   24ff0:	10802a17 	ldw	r2,168(r2)
   24ff4:	9dc00215 	stw	r23,8(r19)
   24ff8:	a5000054 	ori	r20,r20,1
   24ffc:	a885883a 	add	r2,r21,r2
   25000:	00c000f4 	movhi	r3,3
   25004:	18802a15 	stw	r2,168(r3)
   25008:	bd000115 	stw	r20,4(r23)
   2500c:	84c0c626 	beq	r16,r19,25328 <_malloc_r+0x734>
   25010:	b0c00428 	cmpgeui	r3,r22,16
   25014:	1800c626 	beq	r3,zero,25330 <_malloc_r+0x73c>
   25018:	81000117 	ldw	r4,4(r16)
   2501c:	017ffe04 	movi	r5,-8
   25020:	b0fffd04 	addi	r3,r22,-12
   25024:	1946703a 	and	r3,r3,r5
   25028:	2100004c 	andi	r4,r4,1
   2502c:	20c8b03a 	or	r4,r4,r3
   25030:	81000115 	stw	r4,4(r16)
   25034:	01400144 	movi	r5,5
   25038:	80c9883a 	add	r4,r16,r3
   2503c:	21400115 	stw	r5,4(r4)
   25040:	21400215 	stw	r5,8(r4)
   25044:	18c00428 	cmpgeui	r3,r3,16
   25048:	1800cf1e 	bne	r3,zero,25388 <_malloc_r+0x794>
   2504c:	bd000117 	ldw	r20,4(r23)
   25050:	b821883a 	mov	r16,r23
   25054:	00c000f4 	movhi	r3,3
   25058:	18c02317 	ldw	r3,140(r3)
   2505c:	1880022e 	bgeu	r3,r2,25068 <_malloc_r+0x474>
   25060:	00c000f4 	movhi	r3,3
   25064:	18802315 	stw	r2,140(r3)
   25068:	00c000f4 	movhi	r3,3
   2506c:	18c02217 	ldw	r3,136(r3)
   25070:	18805a2e 	bgeu	r3,r2,251dc <_malloc_r+0x5e8>
   25074:	00c000f4 	movhi	r3,3
   25078:	18802215 	stw	r2,136(r3)
   2507c:	00005706 	br	251dc <_malloc_r+0x5e8>
   25080:	88c00054 	ori	r3,r17,1
   25084:	80c00115 	stw	r3,4(r16)
   25088:	8463883a 	add	r17,r16,r17
   2508c:	10800054 	ori	r2,r2,1
   25090:	9c400215 	stw	r17,8(r19)
   25094:	88800115 	stw	r2,4(r17)
   25098:	9009883a 	mov	r4,r18
   2509c:	002d0d80 	call	2d0d8 <__malloc_unlock>
   250a0:	80800204 	addi	r2,r16,8
   250a4:	003f7c06 	br	24e98 <_malloc_r+0x2a4>
   250a8:	400d883a 	mov	r6,r8
   250ac:	003f2106 	br	24d34 <_malloc_r+0x140>
   250b0:	81000317 	ldw	r4,12(r16)
   250b4:	003eee06 	br	24c70 <_malloc_r+0x7c>
   250b8:	1006d27a 	srli	r3,r2,9
   250bc:	19000168 	cmpgeui	r4,r3,5
   250c0:	20003e26 	beq	r4,zero,251bc <_malloc_r+0x5c8>
   250c4:	19000568 	cmpgeui	r4,r3,21
   250c8:	20007a1e 	bne	r4,zero,252b4 <_malloc_r+0x6c0>
   250cc:	19401704 	addi	r5,r3,92
   250d0:	280a90fa 	slli	r5,r5,3
   250d4:	190016c4 	addi	r4,r3,91
   250d8:	994b883a 	add	r5,r19,r5
   250dc:	28c00017 	ldw	r3,0(r5)
   250e0:	297ffe04 	addi	r5,r5,-8
   250e4:	28c06226 	beq	r5,r3,25270 <_malloc_r+0x67c>
   250e8:	01ffff04 	movi	r7,-4
   250ec:	19000117 	ldw	r4,4(r3)
   250f0:	21c8703a 	and	r4,r4,r7
   250f4:	1100022e 	bgeu	r2,r4,25100 <_malloc_r+0x50c>
   250f8:	18c00217 	ldw	r3,8(r3)
   250fc:	28fffb1e 	bne	r5,r3,250ec <_malloc_r+0x4f8>
   25100:	19400317 	ldw	r5,12(r3)
   25104:	98800117 	ldw	r2,4(r19)
   25108:	81400315 	stw	r5,12(r16)
   2510c:	80c00215 	stw	r3,8(r16)
   25110:	2c000215 	stw	r16,8(r5)
   25114:	1c000315 	stw	r16,12(r3)
   25118:	003f2506 	br	24db0 <_malloc_r+0x1bc>
   2511c:	10c00568 	cmpgeui	r3,r2,21
   25120:	18003826 	beq	r3,zero,25204 <_malloc_r+0x610>
   25124:	10c01568 	cmpgeui	r3,r2,85
   25128:	1800691e 	bne	r3,zero,252d0 <_malloc_r+0x6dc>
   2512c:	8804d33a 	srli	r2,r17,12
   25130:	11801bc4 	addi	r6,r2,111
   25134:	12001b84 	addi	r8,r2,110
   25138:	300a90fa 	slli	r5,r6,3
   2513c:	003ee606 	br	24cd8 <_malloc_r+0xe4>
   25140:	5ac00044 	addi	r11,r11,1
   25144:	588000cc 	andi	r2,r11,3
   25148:	39c00204 	addi	r7,r7,8
   2514c:	103f2d1e 	bne	r2,zero,24e04 <_malloc_r+0x210>
   25150:	00003306 	br	25220 <_malloc_r+0x62c>
   25154:	8085883a 	add	r2,r16,r2
   25158:	10c00117 	ldw	r3,4(r2)
   2515c:	81000317 	ldw	r4,12(r16)
   25160:	81400217 	ldw	r5,8(r16)
   25164:	18c00054 	ori	r3,r3,1
   25168:	10c00115 	stw	r3,4(r2)
   2516c:	29000315 	stw	r4,12(r5)
   25170:	21400215 	stw	r5,8(r4)
   25174:	9009883a 	mov	r4,r18
   25178:	002d0d80 	call	2d0d8 <__malloc_unlock>
   2517c:	80800204 	addi	r2,r16,8
   25180:	003f4506 	br	24e98 <_malloc_r+0x2a4>
   25184:	880cd0fa 	srli	r6,r17,3
   25188:	88800204 	addi	r2,r17,8
   2518c:	003eae06 	br	24c48 <_malloc_r+0x54>
   25190:	8085883a 	add	r2,r16,r2
   25194:	10c00117 	ldw	r3,4(r2)
   25198:	9009883a 	mov	r4,r18
   2519c:	18c00054 	ori	r3,r3,1
   251a0:	10c00115 	stw	r3,4(r2)
   251a4:	002d0d80 	call	2d0d8 <__malloc_unlock>
   251a8:	80800204 	addi	r2,r16,8
   251ac:	003f3a06 	br	24e98 <_malloc_r+0x2a4>
   251b0:	89000054 	ori	r4,r17,1
   251b4:	81000115 	stw	r4,4(r16)
   251b8:	003f2706 	br	24e58 <_malloc_r+0x264>
   251bc:	1006d1ba 	srli	r3,r2,6
   251c0:	19400e44 	addi	r5,r3,57
   251c4:	19000e04 	addi	r4,r3,56
   251c8:	280a90fa 	slli	r5,r5,3
   251cc:	003fc206 	br	250d8 <_malloc_r+0x4e4>
   251d0:	84c04626 	beq	r16,r19,252ec <_malloc_r+0x6f8>
   251d4:	9c000217 	ldw	r16,8(r19)
   251d8:	85000117 	ldw	r20,4(r16)
   251dc:	00bfff04 	movi	r2,-4
   251e0:	a0a8703a 	and	r20,r20,r2
   251e4:	a445c83a 	sub	r2,r20,r17
   251e8:	a4400236 	bltu	r20,r17,251f4 <_malloc_r+0x600>
   251ec:	10c00408 	cmpgei	r3,r2,16
   251f0:	183fa31e 	bne	r3,zero,25080 <_malloc_r+0x48c>
   251f4:	9009883a 	mov	r4,r18
   251f8:	002d0d80 	call	2d0d8 <__malloc_unlock>
   251fc:	0005883a 	mov	r2,zero
   25200:	003f2506 	br	24e98 <_malloc_r+0x2a4>
   25204:	11801704 	addi	r6,r2,92
   25208:	120016c4 	addi	r8,r2,91
   2520c:	300a90fa 	slli	r5,r6,3
   25210:	003eb106 	br	24cd8 <_malloc_r+0xe4>
   25214:	50800217 	ldw	r2,8(r10)
   25218:	31bfffc4 	addi	r6,r6,-1
   2521c:	1280701e 	bne	r2,r10,253e0 <_malloc_r+0x7ec>
   25220:	308000cc 	andi	r2,r6,3
   25224:	52bffe04 	addi	r10,r10,-8
   25228:	103ffa1e 	bne	r2,zero,25214 <_malloc_r+0x620>
   2522c:	98c00117 	ldw	r3,4(r19)
   25230:	0104303a 	nor	r2,zero,r4
   25234:	10c4703a 	and	r2,r2,r3
   25238:	98800115 	stw	r2,4(r19)
   2523c:	2109883a 	add	r4,r4,r4
   25240:	113f3136 	bltu	r2,r4,24f08 <_malloc_r+0x314>
   25244:	203f3026 	beq	r4,zero,24f08 <_malloc_r+0x314>
   25248:	2086703a 	and	r3,r4,r2
   2524c:	1800041e 	bne	r3,zero,25260 <_malloc_r+0x66c>
   25250:	2109883a 	add	r4,r4,r4
   25254:	2086703a 	and	r3,r4,r2
   25258:	5ac00104 	addi	r11,r11,4
   2525c:	183ffc26 	beq	r3,zero,25250 <_malloc_r+0x65c>
   25260:	580d883a 	mov	r6,r11
   25264:	003ee306 	br	24df4 <_malloc_r+0x200>
   25268:	a5000404 	addi	r20,r20,16
   2526c:	003f3906 	br	24f54 <_malloc_r+0x360>
   25270:	2009d0ba 	srai	r4,r4,2
   25274:	00800044 	movi	r2,1
   25278:	99c00117 	ldw	r7,4(r19)
   2527c:	1104983a 	sll	r2,r2,r4
   25280:	11c4b03a 	or	r2,r2,r7
   25284:	98800115 	stw	r2,4(r19)
   25288:	003f9f06 	br	25108 <_malloc_r+0x514>
   2528c:	bd05883a 	add	r2,r23,r20
   25290:	0085c83a 	sub	r2,zero,r2
   25294:	1543ffcc 	andi	r21,r2,4095
   25298:	a80b883a 	mov	r5,r21
   2529c:	9009883a 	mov	r4,r18
   252a0:	00266740 	call	26674 <_sbrk_r>
   252a4:	10ffffe0 	cmpeqi	r3,r2,-1
   252a8:	183f4e26 	beq	r3,zero,24fe4 <_malloc_r+0x3f0>
   252ac:	002b883a 	mov	r21,zero
   252b0:	003f4e06 	br	24fec <_malloc_r+0x3f8>
   252b4:	19001568 	cmpgeui	r4,r3,85
   252b8:	2000201e 	bne	r4,zero,2533c <_malloc_r+0x748>
   252bc:	1006d33a 	srli	r3,r2,12
   252c0:	19401bc4 	addi	r5,r3,111
   252c4:	19001b84 	addi	r4,r3,110
   252c8:	280a90fa 	slli	r5,r5,3
   252cc:	003f8206 	br	250d8 <_malloc_r+0x4e4>
   252d0:	10c05568 	cmpgeui	r3,r2,341
   252d4:	1800201e 	bne	r3,zero,25358 <_malloc_r+0x764>
   252d8:	8804d3fa 	srli	r2,r17,15
   252dc:	11801e04 	addi	r6,r2,120
   252e0:	12001dc4 	addi	r8,r2,119
   252e4:	300a90fa 	slli	r5,r6,3
   252e8:	003e7b06 	br	24cd8 <_malloc_r+0xe4>
   252ec:	008000f4 	movhi	r2,3
   252f0:	10c02a17 	ldw	r3,168(r2)
   252f4:	a0c7883a 	add	r3,r20,r3
   252f8:	10c02a15 	stw	r3,168(r2)
   252fc:	003f2306 	br	24f8c <_malloc_r+0x398>
   25300:	a903ffcc 	andi	r4,r21,4095
   25304:	203f211e 	bne	r4,zero,24f8c <_malloc_r+0x398>
   25308:	9c000217 	ldw	r16,8(r19)
   2530c:	b529883a 	add	r20,r22,r20
   25310:	a5000054 	ori	r20,r20,1
   25314:	85000115 	stw	r20,4(r16)
   25318:	003f4e06 	br	25054 <_malloc_r+0x460>
   2531c:	008000f4 	movhi	r2,3
   25320:	15fd3315 	stw	r23,-2868(r2)
   25324:	003f2106 	br	24fac <_malloc_r+0x3b8>
   25328:	b821883a 	mov	r16,r23
   2532c:	003f4906 	br	25054 <_malloc_r+0x460>
   25330:	00800044 	movi	r2,1
   25334:	b8800115 	stw	r2,4(r23)
   25338:	003fae06 	br	251f4 <_malloc_r+0x600>
   2533c:	19005568 	cmpgeui	r4,r3,341
   25340:	2000191e 	bne	r4,zero,253a8 <_malloc_r+0x7b4>
   25344:	1006d3fa 	srli	r3,r2,15
   25348:	19401e04 	addi	r5,r3,120
   2534c:	19001dc4 	addi	r4,r3,119
   25350:	280a90fa 	slli	r5,r5,3
   25354:	003f6006 	br	250d8 <_malloc_r+0x4e4>
   25358:	10815568 	cmpgeui	r2,r2,1365
   2535c:	1000191e 	bne	r2,zero,253c4 <_malloc_r+0x7d0>
   25360:	8804d4ba 	srli	r2,r17,18
   25364:	11801f44 	addi	r6,r2,125
   25368:	12001f04 	addi	r8,r2,124
   2536c:	300a90fa 	slli	r5,r6,3
   25370:	003e5906 	br	24cd8 <_malloc_r+0xe4>
   25374:	e73ffe04 	addi	fp,fp,-8
   25378:	a729883a 	add	r20,r20,fp
   2537c:	a5e9c83a 	sub	r20,r20,r23
   25380:	002b883a 	mov	r21,zero
   25384:	003f1906 	br	24fec <_malloc_r+0x3f8>
   25388:	81400204 	addi	r5,r16,8
   2538c:	9009883a 	mov	r4,r18
   25390:	00245ac0 	call	245ac <_free_r>
   25394:	9c000217 	ldw	r16,8(r19)
   25398:	008000f4 	movhi	r2,3
   2539c:	10802a17 	ldw	r2,168(r2)
   253a0:	85000117 	ldw	r20,4(r16)
   253a4:	003f2b06 	br	25054 <_malloc_r+0x460>
   253a8:	18c15568 	cmpgeui	r3,r3,1365
   253ac:	1800091e 	bne	r3,zero,253d4 <_malloc_r+0x7e0>
   253b0:	1006d4ba 	srli	r3,r2,18
   253b4:	19401f44 	addi	r5,r3,125
   253b8:	19001f04 	addi	r4,r3,124
   253bc:	280a90fa 	slli	r5,r5,3
   253c0:	003f4506 	br	250d8 <_malloc_r+0x4e4>
   253c4:	0140fe04 	movi	r5,1016
   253c8:	01801fc4 	movi	r6,127
   253cc:	02001f84 	movi	r8,126
   253d0:	003e4106 	br	24cd8 <_malloc_r+0xe4>
   253d4:	0140fe04 	movi	r5,1016
   253d8:	01001f84 	movi	r4,126
   253dc:	003f3e06 	br	250d8 <_malloc_r+0x4e4>
   253e0:	98800117 	ldw	r2,4(r19)
   253e4:	003f9506 	br	2523c <_malloc_r+0x648>

000253e8 <memchr>:
   253e8:	208000cc 	andi	r2,r4,3
   253ec:	280f883a 	mov	r7,r5
   253f0:	10003526 	beq	r2,zero,254c8 <memchr+0xe0>
   253f4:	30bfffc4 	addi	r2,r6,-1
   253f8:	30001926 	beq	r6,zero,25460 <memchr+0x78>
   253fc:	20c00003 	ldbu	r3,0(r4)
   25400:	29803fcc 	andi	r6,r5,255
   25404:	30c0061e 	bne	r6,r3,25420 <memchr+0x38>
   25408:	00001706 	br	25468 <memchr+0x80>
   2540c:	10bfffc4 	addi	r2,r2,-1
   25410:	10ffffe0 	cmpeqi	r3,r2,-1
   25414:	1800121e 	bne	r3,zero,25460 <memchr+0x78>
   25418:	20c00003 	ldbu	r3,0(r4)
   2541c:	19801226 	beq	r3,r6,25468 <memchr+0x80>
   25420:	21000044 	addi	r4,r4,1
   25424:	20c000cc 	andi	r3,r4,3
   25428:	183ff81e 	bne	r3,zero,2540c <memchr+0x24>
   2542c:	10c00128 	cmpgeui	r3,r2,4
   25430:	18000f1e 	bne	r3,zero,25470 <memchr+0x88>
   25434:	10000a26 	beq	r2,zero,25460 <memchr+0x78>
   25438:	20c00003 	ldbu	r3,0(r4)
   2543c:	29403fcc 	andi	r5,r5,255
   25440:	19400926 	beq	r3,r5,25468 <memchr+0x80>
   25444:	2085883a 	add	r2,r4,r2
   25448:	39403fcc 	andi	r5,r7,255
   2544c:	00000206 	br	25458 <memchr+0x70>
   25450:	20c00003 	ldbu	r3,0(r4)
   25454:	19400426 	beq	r3,r5,25468 <memchr+0x80>
   25458:	21000044 	addi	r4,r4,1
   2545c:	113ffc1e 	bne	r2,r4,25450 <memchr+0x68>
   25460:	0005883a 	mov	r2,zero
   25464:	f800283a 	ret
   25468:	2005883a 	mov	r2,r4
   2546c:	f800283a 	ret
   25470:	280c923a 	slli	r6,r5,8
   25474:	2a403fcc 	andi	r9,r5,255
   25478:	02bfbff4 	movhi	r10,65279
   2547c:	31bfffcc 	andi	r6,r6,65535
   25480:	3246b03a 	or	r3,r6,r9
   25484:	1812943a 	slli	r9,r3,16
   25488:	02202074 	movhi	r8,32897
   2548c:	52bfbfc4 	addi	r10,r10,-257
   25490:	48d2b03a 	or	r9,r9,r3
   25494:	42202004 	addi	r8,r8,-32640
   25498:	20c00017 	ldw	r3,0(r4)
   2549c:	48c6f03a 	xor	r3,r9,r3
   254a0:	1a8d883a 	add	r6,r3,r10
   254a4:	00c6303a 	nor	r3,zero,r3
   254a8:	30c6703a 	and	r3,r6,r3
   254ac:	1a06703a 	and	r3,r3,r8
   254b0:	183fe11e 	bne	r3,zero,25438 <memchr+0x50>
   254b4:	10bfff04 	addi	r2,r2,-4
   254b8:	10c00128 	cmpgeui	r3,r2,4
   254bc:	21000104 	addi	r4,r4,4
   254c0:	183ff51e 	bne	r3,zero,25498 <memchr+0xb0>
   254c4:	003fdb06 	br	25434 <memchr+0x4c>
   254c8:	3005883a 	mov	r2,r6
   254cc:	003fd706 	br	2542c <memchr+0x44>

000254d0 <memcpy>:
   254d0:	30c00430 	cmpltui	r3,r6,16
   254d4:	2005883a 	mov	r2,r4
   254d8:	18002d1e 	bne	r3,zero,25590 <memcpy+0xc0>
   254dc:	2906b03a 	or	r3,r5,r4
   254e0:	18c000cc 	andi	r3,r3,3
   254e4:	1800351e 	bne	r3,zero,255bc <memcpy+0xec>
   254e8:	32fffc04 	addi	r11,r6,-16
   254ec:	5816d13a 	srli	r11,r11,4
   254f0:	2007883a 	mov	r3,r4
   254f4:	280f883a 	mov	r7,r5
   254f8:	5ac00044 	addi	r11,r11,1
   254fc:	5816913a 	slli	r11,r11,4
   25500:	22c9883a 	add	r4,r4,r11
   25504:	3a000017 	ldw	r8,0(r7)
   25508:	3a800117 	ldw	r10,4(r7)
   2550c:	3a400217 	ldw	r9,8(r7)
   25510:	39c00404 	addi	r7,r7,16
   25514:	1a000015 	stw	r8,0(r3)
   25518:	3a3fff17 	ldw	r8,-4(r7)
   2551c:	1a800115 	stw	r10,4(r3)
   25520:	1a400215 	stw	r9,8(r3)
   25524:	18c00404 	addi	r3,r3,16
   25528:	1a3fff15 	stw	r8,-4(r3)
   2552c:	20fff51e 	bne	r4,r3,25504 <memcpy+0x34>
   25530:	3100030c 	andi	r4,r6,12
   25534:	2acb883a 	add	r5,r5,r11
   25538:	320003cc 	andi	r8,r6,15
   2553c:	20002226 	beq	r4,zero,255c8 <memcpy+0xf8>
   25540:	2809883a 	mov	r4,r5
   25544:	1813883a 	mov	r9,r3
   25548:	21000104 	addi	r4,r4,4
   2554c:	22bfff17 	ldw	r10,-4(r4)
   25550:	410fc83a 	sub	r7,r8,r4
   25554:	4a400104 	addi	r9,r9,4
   25558:	29cf883a 	add	r7,r5,r7
   2555c:	4abfff15 	stw	r10,-4(r9)
   25560:	39c00128 	cmpgeui	r7,r7,4
   25564:	383ff81e 	bne	r7,zero,25548 <memcpy+0x78>
   25568:	413fff04 	addi	r4,r8,-4
   2556c:	2008d0ba 	srli	r4,r4,2
   25570:	318000cc 	andi	r6,r6,3
   25574:	31ffffc4 	addi	r7,r6,-1
   25578:	21000044 	addi	r4,r4,1
   2557c:	200890ba 	slli	r4,r4,2
   25580:	1907883a 	add	r3,r3,r4
   25584:	290b883a 	add	r5,r5,r4
   25588:	3000041e 	bne	r6,zero,2559c <memcpy+0xcc>
   2558c:	f800283a 	ret
   25590:	2007883a 	mov	r3,r4
   25594:	31ffffc4 	addi	r7,r6,-1
   25598:	303ffc26 	beq	r6,zero,2558c <memcpy+0xbc>
   2559c:	39c00044 	addi	r7,r7,1
   255a0:	19cf883a 	add	r7,r3,r7
   255a4:	29400044 	addi	r5,r5,1
   255a8:	29bfffc3 	ldbu	r6,-1(r5)
   255ac:	18c00044 	addi	r3,r3,1
   255b0:	19bfffc5 	stb	r6,-1(r3)
   255b4:	19fffb1e 	bne	r3,r7,255a4 <memcpy+0xd4>
   255b8:	f800283a 	ret
   255bc:	31ffffc4 	addi	r7,r6,-1
   255c0:	2007883a 	mov	r3,r4
   255c4:	003ff506 	br	2559c <memcpy+0xcc>
   255c8:	400d883a 	mov	r6,r8
   255cc:	003ff106 	br	25594 <memcpy+0xc4>

000255d0 <memset>:
   255d0:	20c000cc 	andi	r3,r4,3
   255d4:	2005883a 	mov	r2,r4
   255d8:	18003626 	beq	r3,zero,256b4 <memset+0xe4>
   255dc:	31ffffc4 	addi	r7,r6,-1
   255e0:	30003326 	beq	r6,zero,256b0 <memset+0xe0>
   255e4:	2811883a 	mov	r8,r5
   255e8:	2007883a 	mov	r3,r4
   255ec:	00000306 	br	255fc <memset+0x2c>
   255f0:	39ffffc4 	addi	r7,r7,-1
   255f4:	39bfffe0 	cmpeqi	r6,r7,-1
   255f8:	30002d1e 	bne	r6,zero,256b0 <memset+0xe0>
   255fc:	18c00044 	addi	r3,r3,1
   25600:	1a3fffc5 	stb	r8,-1(r3)
   25604:	198000cc 	andi	r6,r3,3
   25608:	303ff91e 	bne	r6,zero,255f0 <memset+0x20>
   2560c:	39000130 	cmpltui	r4,r7,4
   25610:	2000221e 	bne	r4,zero,2569c <memset+0xcc>
   25614:	29003fcc 	andi	r4,r5,255
   25618:	200c923a 	slli	r6,r4,8
   2561c:	3a000430 	cmpltui	r8,r7,16
   25620:	3108b03a 	or	r4,r6,r4
   25624:	200c943a 	slli	r6,r4,16
   25628:	310cb03a 	or	r6,r6,r4
   2562c:	40000e1e 	bne	r8,zero,25668 <memset+0x98>
   25630:	3a3ffc04 	addi	r8,r7,-16
   25634:	4010d13a 	srli	r8,r8,4
   25638:	42000044 	addi	r8,r8,1
   2563c:	4010913a 	slli	r8,r8,4
   25640:	1a11883a 	add	r8,r3,r8
   25644:	19800015 	stw	r6,0(r3)
   25648:	19800115 	stw	r6,4(r3)
   2564c:	19800215 	stw	r6,8(r3)
   25650:	18c00404 	addi	r3,r3,16
   25654:	19bfff15 	stw	r6,-4(r3)
   25658:	40fffa1e 	bne	r8,r3,25644 <memset+0x74>
   2565c:	3900030c 	andi	r4,r7,12
   25660:	39c003cc 	andi	r7,r7,15
   25664:	20000d26 	beq	r4,zero,2569c <memset+0xcc>
   25668:	1809883a 	mov	r4,r3
   2566c:	21000104 	addi	r4,r4,4
   25670:	3911c83a 	sub	r8,r7,r4
   25674:	1a11883a 	add	r8,r3,r8
   25678:	21bfff15 	stw	r6,-4(r4)
   2567c:	42000128 	cmpgeui	r8,r8,4
   25680:	403ffa1e 	bne	r8,zero,2566c <memset+0x9c>
   25684:	393fff04 	addi	r4,r7,-4
   25688:	2008d0ba 	srli	r4,r4,2
   2568c:	39c000cc 	andi	r7,r7,3
   25690:	21000044 	addi	r4,r4,1
   25694:	200890ba 	slli	r4,r4,2
   25698:	1907883a 	add	r3,r3,r4
   2569c:	38000426 	beq	r7,zero,256b0 <memset+0xe0>
   256a0:	19cf883a 	add	r7,r3,r7
   256a4:	18c00044 	addi	r3,r3,1
   256a8:	197fffc5 	stb	r5,-1(r3)
   256ac:	38fffd1e 	bne	r7,r3,256a4 <memset+0xd4>
   256b0:	f800283a 	ret
   256b4:	2007883a 	mov	r3,r4
   256b8:	300f883a 	mov	r7,r6
   256bc:	003fd306 	br	2560c <memset+0x3c>

000256c0 <_Balloc>:
   256c0:	20801317 	ldw	r2,76(r4)
   256c4:	defffc04 	addi	sp,sp,-16
   256c8:	dc400115 	stw	r17,4(sp)
   256cc:	dc000015 	stw	r16,0(sp)
   256d0:	dfc00315 	stw	ra,12(sp)
   256d4:	dc800215 	stw	r18,8(sp)
   256d8:	2021883a 	mov	r16,r4
   256dc:	2823883a 	mov	r17,r5
   256e0:	10000e26 	beq	r2,zero,2571c <_Balloc+0x5c>
   256e4:	880690ba 	slli	r3,r17,2
   256e8:	10c7883a 	add	r3,r2,r3
   256ec:	18800017 	ldw	r2,0(r3)
   256f0:	10001126 	beq	r2,zero,25738 <_Balloc+0x78>
   256f4:	11000017 	ldw	r4,0(r2)
   256f8:	19000015 	stw	r4,0(r3)
   256fc:	10000415 	stw	zero,16(r2)
   25700:	10000315 	stw	zero,12(r2)
   25704:	dfc00317 	ldw	ra,12(sp)
   25708:	dc800217 	ldw	r18,8(sp)
   2570c:	dc400117 	ldw	r17,4(sp)
   25710:	dc000017 	ldw	r16,0(sp)
   25714:	dec00404 	addi	sp,sp,16
   25718:	f800283a 	ret
   2571c:	01800844 	movi	r6,33
   25720:	01400104 	movi	r5,4
   25724:	0027e800 	call	27e80 <_calloc_r>
   25728:	80801315 	stw	r2,76(r16)
   2572c:	103fed1e 	bne	r2,zero,256e4 <_Balloc+0x24>
   25730:	0005883a 	mov	r2,zero
   25734:	003ff306 	br	25704 <_Balloc+0x44>
   25738:	04800044 	movi	r18,1
   2573c:	9464983a 	sll	r18,r18,r17
   25740:	01400044 	movi	r5,1
   25744:	8009883a 	mov	r4,r16
   25748:	91800144 	addi	r6,r18,5
   2574c:	300c90ba 	slli	r6,r6,2
   25750:	0027e800 	call	27e80 <_calloc_r>
   25754:	103ff626 	beq	r2,zero,25730 <_Balloc+0x70>
   25758:	14400115 	stw	r17,4(r2)
   2575c:	14800215 	stw	r18,8(r2)
   25760:	003fe606 	br	256fc <_Balloc+0x3c>

00025764 <_Bfree>:
   25764:	28000726 	beq	r5,zero,25784 <_Bfree+0x20>
   25768:	28c00117 	ldw	r3,4(r5)
   2576c:	20801317 	ldw	r2,76(r4)
   25770:	180690ba 	slli	r3,r3,2
   25774:	10c5883a 	add	r2,r2,r3
   25778:	10c00017 	ldw	r3,0(r2)
   2577c:	28c00015 	stw	r3,0(r5)
   25780:	11400015 	stw	r5,0(r2)
   25784:	f800283a 	ret

00025788 <__multadd>:
   25788:	defff704 	addi	sp,sp,-36
   2578c:	dcc00315 	stw	r19,12(sp)
   25790:	2cc00417 	ldw	r19,16(r5)
   25794:	ddc00715 	stw	r23,28(sp)
   25798:	dd800615 	stw	r22,24(sp)
   2579c:	dd400515 	stw	r21,20(sp)
   257a0:	dd000415 	stw	r20,16(sp)
   257a4:	dc800215 	stw	r18,8(sp)
   257a8:	dc400115 	stw	r17,4(sp)
   257ac:	dfc00815 	stw	ra,32(sp)
   257b0:	dc000015 	stw	r16,0(sp)
   257b4:	2829883a 	mov	r20,r5
   257b8:	202b883a 	mov	r21,r4
   257bc:	3025883a 	mov	r18,r6
   257c0:	3823883a 	mov	r17,r7
   257c4:	2d800504 	addi	r22,r5,20
   257c8:	002f883a 	mov	r23,zero
   257cc:	b4000017 	ldw	r16,0(r22)
   257d0:	900b883a 	mov	r5,r18
   257d4:	b5800104 	addi	r22,r22,4
   257d8:	813fffcc 	andi	r4,r16,65535
   257dc:	00201400 	call	20140 <__mulsi3>
   257e0:	8008d43a 	srli	r4,r16,16
   257e4:	900b883a 	mov	r5,r18
   257e8:	1461883a 	add	r16,r2,r17
   257ec:	00201400 	call	20140 <__mulsi3>
   257f0:	800ed43a 	srli	r7,r16,16
   257f4:	843fffcc 	andi	r16,r16,65535
   257f8:	bdc00044 	addi	r23,r23,1
   257fc:	11c5883a 	add	r2,r2,r7
   25800:	1006943a 	slli	r3,r2,16
   25804:	1022d43a 	srli	r17,r2,16
   25808:	1c21883a 	add	r16,r3,r16
   2580c:	b43fff15 	stw	r16,-4(r22)
   25810:	bcffee16 	blt	r23,r19,257cc <__multadd+0x44>
   25814:	88000826 	beq	r17,zero,25838 <__multadd+0xb0>
   25818:	a0800217 	ldw	r2,8(r20)
   2581c:	9880120e 	bge	r19,r2,25868 <__multadd+0xe0>
   25820:	98800144 	addi	r2,r19,5
   25824:	100490ba 	slli	r2,r2,2
   25828:	9cc00044 	addi	r19,r19,1
   2582c:	a085883a 	add	r2,r20,r2
   25830:	14400015 	stw	r17,0(r2)
   25834:	a4c00415 	stw	r19,16(r20)
   25838:	a005883a 	mov	r2,r20
   2583c:	dfc00817 	ldw	ra,32(sp)
   25840:	ddc00717 	ldw	r23,28(sp)
   25844:	dd800617 	ldw	r22,24(sp)
   25848:	dd400517 	ldw	r21,20(sp)
   2584c:	dd000417 	ldw	r20,16(sp)
   25850:	dcc00317 	ldw	r19,12(sp)
   25854:	dc800217 	ldw	r18,8(sp)
   25858:	dc400117 	ldw	r17,4(sp)
   2585c:	dc000017 	ldw	r16,0(sp)
   25860:	dec00904 	addi	sp,sp,36
   25864:	f800283a 	ret
   25868:	a1400117 	ldw	r5,4(r20)
   2586c:	a809883a 	mov	r4,r21
   25870:	29400044 	addi	r5,r5,1
   25874:	00256c00 	call	256c0 <_Balloc>
   25878:	a1800417 	ldw	r6,16(r20)
   2587c:	a1400304 	addi	r5,r20,12
   25880:	11000304 	addi	r4,r2,12
   25884:	31800084 	addi	r6,r6,2
   25888:	300c90ba 	slli	r6,r6,2
   2588c:	1021883a 	mov	r16,r2
   25890:	00254d00 	call	254d0 <memcpy>
   25894:	a0000926 	beq	r20,zero,258bc <__multadd+0x134>
   25898:	a0c00117 	ldw	r3,4(r20)
   2589c:	a8801317 	ldw	r2,76(r21)
   258a0:	180690ba 	slli	r3,r3,2
   258a4:	10c5883a 	add	r2,r2,r3
   258a8:	10c00017 	ldw	r3,0(r2)
   258ac:	a0c00015 	stw	r3,0(r20)
   258b0:	15000015 	stw	r20,0(r2)
   258b4:	8029883a 	mov	r20,r16
   258b8:	003fd906 	br	25820 <__multadd+0x98>
   258bc:	8029883a 	mov	r20,r16
   258c0:	003fd706 	br	25820 <__multadd+0x98>

000258c4 <__s2b>:
   258c4:	defff904 	addi	sp,sp,-28
   258c8:	dc800215 	stw	r18,8(sp)
   258cc:	dc000015 	stw	r16,0(sp)
   258d0:	2025883a 	mov	r18,r4
   258d4:	2821883a 	mov	r16,r5
   258d8:	39000204 	addi	r4,r7,8
   258dc:	01400244 	movi	r5,9
   258e0:	dcc00315 	stw	r19,12(sp)
   258e4:	dc400115 	stw	r17,4(sp)
   258e8:	dfc00615 	stw	ra,24(sp)
   258ec:	3823883a 	mov	r17,r7
   258f0:	dd400515 	stw	r21,20(sp)
   258f4:	dd000415 	stw	r20,16(sp)
   258f8:	3027883a 	mov	r19,r6
   258fc:	002a0140 	call	2a014 <__divsi3>
   25900:	88c00290 	cmplti	r3,r17,10
   25904:	1800311e 	bne	r3,zero,259cc <__s2b+0x108>
   25908:	00c00044 	movi	r3,1
   2590c:	000b883a 	mov	r5,zero
   25910:	18c7883a 	add	r3,r3,r3
   25914:	29400044 	addi	r5,r5,1
   25918:	18bffd16 	blt	r3,r2,25910 <__s2b+0x4c>
   2591c:	9009883a 	mov	r4,r18
   25920:	00256c00 	call	256c0 <_Balloc>
   25924:	d8c00717 	ldw	r3,28(sp)
   25928:	10c00515 	stw	r3,20(r2)
   2592c:	00c00044 	movi	r3,1
   25930:	10c00415 	stw	r3,16(r2)
   25934:	98c00290 	cmplti	r3,r19,10
   25938:	1800211e 	bne	r3,zero,259c0 <__s2b+0xfc>
   2593c:	85400244 	addi	r21,r16,9
   25940:	84e9883a 	add	r20,r16,r19
   25944:	a821883a 	mov	r16,r21
   25948:	84000044 	addi	r16,r16,1
   2594c:	81ffffc7 	ldb	r7,-1(r16)
   25950:	01800284 	movi	r6,10
   25954:	100b883a 	mov	r5,r2
   25958:	39fff404 	addi	r7,r7,-48
   2595c:	9009883a 	mov	r4,r18
   25960:	00257880 	call	25788 <__multadd>
   25964:	a43ff81e 	bne	r20,r16,25948 <__s2b+0x84>
   25968:	9c3ffe04 	addi	r16,r19,-8
   2596c:	ac21883a 	add	r16,r21,r16
   25970:	9c400a0e 	bge	r19,r17,2599c <__s2b+0xd8>
   25974:	8ce3c83a 	sub	r17,r17,r19
   25978:	8463883a 	add	r17,r16,r17
   2597c:	84000044 	addi	r16,r16,1
   25980:	81ffffc7 	ldb	r7,-1(r16)
   25984:	01800284 	movi	r6,10
   25988:	100b883a 	mov	r5,r2
   2598c:	39fff404 	addi	r7,r7,-48
   25990:	9009883a 	mov	r4,r18
   25994:	00257880 	call	25788 <__multadd>
   25998:	8c3ff81e 	bne	r17,r16,2597c <__s2b+0xb8>
   2599c:	dfc00617 	ldw	ra,24(sp)
   259a0:	dd400517 	ldw	r21,20(sp)
   259a4:	dd000417 	ldw	r20,16(sp)
   259a8:	dcc00317 	ldw	r19,12(sp)
   259ac:	dc800217 	ldw	r18,8(sp)
   259b0:	dc400117 	ldw	r17,4(sp)
   259b4:	dc000017 	ldw	r16,0(sp)
   259b8:	dec00704 	addi	sp,sp,28
   259bc:	f800283a 	ret
   259c0:	84000284 	addi	r16,r16,10
   259c4:	04c00244 	movi	r19,9
   259c8:	003fe906 	br	25970 <__s2b+0xac>
   259cc:	000b883a 	mov	r5,zero
   259d0:	003fd206 	br	2591c <__s2b+0x58>

000259d4 <__hi0bits>:
   259d4:	20bfffec 	andhi	r2,r4,65535
   259d8:	1000131e 	bne	r2,zero,25a28 <__hi0bits+0x54>
   259dc:	2008943a 	slli	r4,r4,16
   259e0:	00800404 	movi	r2,16
   259e4:	20ffc02c 	andhi	r3,r4,65280
   259e8:	1800021e 	bne	r3,zero,259f4 <__hi0bits+0x20>
   259ec:	2008923a 	slli	r4,r4,8
   259f0:	10800204 	addi	r2,r2,8
   259f4:	20fc002c 	andhi	r3,r4,61440
   259f8:	1800021e 	bne	r3,zero,25a04 <__hi0bits+0x30>
   259fc:	2008913a 	slli	r4,r4,4
   25a00:	10800104 	addi	r2,r2,4
   25a04:	20f0002c 	andhi	r3,r4,49152
   25a08:	1800021e 	bne	r3,zero,25a14 <__hi0bits+0x40>
   25a0c:	200890ba 	slli	r4,r4,2
   25a10:	10800084 	addi	r2,r2,2
   25a14:	20000316 	blt	r4,zero,25a24 <__hi0bits+0x50>
   25a18:	2110002c 	andhi	r4,r4,16384
   25a1c:	10800044 	addi	r2,r2,1
   25a20:	20000326 	beq	r4,zero,25a30 <__hi0bits+0x5c>
   25a24:	f800283a 	ret
   25a28:	0005883a 	mov	r2,zero
   25a2c:	003fed06 	br	259e4 <__hi0bits+0x10>
   25a30:	00800804 	movi	r2,32
   25a34:	f800283a 	ret

00025a38 <__lo0bits>:
   25a38:	20c00017 	ldw	r3,0(r4)
   25a3c:	188001cc 	andi	r2,r3,7
   25a40:	10000826 	beq	r2,zero,25a64 <__lo0bits+0x2c>
   25a44:	1880004c 	andi	r2,r3,1
   25a48:	10001f1e 	bne	r2,zero,25ac8 <__lo0bits+0x90>
   25a4c:	1880008c 	andi	r2,r3,2
   25a50:	10002126 	beq	r2,zero,25ad8 <__lo0bits+0xa0>
   25a54:	1806d07a 	srli	r3,r3,1
   25a58:	00800044 	movi	r2,1
   25a5c:	20c00015 	stw	r3,0(r4)
   25a60:	f800283a 	ret
   25a64:	18bfffcc 	andi	r2,r3,65535
   25a68:	1000151e 	bne	r2,zero,25ac0 <__lo0bits+0x88>
   25a6c:	1806d43a 	srli	r3,r3,16
   25a70:	00800404 	movi	r2,16
   25a74:	19403fcc 	andi	r5,r3,255
   25a78:	2800021e 	bne	r5,zero,25a84 <__lo0bits+0x4c>
   25a7c:	1806d23a 	srli	r3,r3,8
   25a80:	10800204 	addi	r2,r2,8
   25a84:	194003cc 	andi	r5,r3,15
   25a88:	2800021e 	bne	r5,zero,25a94 <__lo0bits+0x5c>
   25a8c:	1806d13a 	srli	r3,r3,4
   25a90:	10800104 	addi	r2,r2,4
   25a94:	194000cc 	andi	r5,r3,3
   25a98:	2800021e 	bne	r5,zero,25aa4 <__lo0bits+0x6c>
   25a9c:	1806d0ba 	srli	r3,r3,2
   25aa0:	10800084 	addi	r2,r2,2
   25aa4:	1940004c 	andi	r5,r3,1
   25aa8:	2800031e 	bne	r5,zero,25ab8 <__lo0bits+0x80>
   25aac:	1806d07a 	srli	r3,r3,1
   25ab0:	10800044 	addi	r2,r2,1
   25ab4:	18000626 	beq	r3,zero,25ad0 <__lo0bits+0x98>
   25ab8:	20c00015 	stw	r3,0(r4)
   25abc:	f800283a 	ret
   25ac0:	0005883a 	mov	r2,zero
   25ac4:	003feb06 	br	25a74 <__lo0bits+0x3c>
   25ac8:	0005883a 	mov	r2,zero
   25acc:	f800283a 	ret
   25ad0:	00800804 	movi	r2,32
   25ad4:	f800283a 	ret
   25ad8:	1806d0ba 	srli	r3,r3,2
   25adc:	00800084 	movi	r2,2
   25ae0:	20c00015 	stw	r3,0(r4)
   25ae4:	f800283a 	ret

00025ae8 <__i2b>:
   25ae8:	defffe04 	addi	sp,sp,-8
   25aec:	dc000015 	stw	r16,0(sp)
   25af0:	2821883a 	mov	r16,r5
   25af4:	01400044 	movi	r5,1
   25af8:	dfc00115 	stw	ra,4(sp)
   25afc:	00256c00 	call	256c0 <_Balloc>
   25b00:	01000044 	movi	r4,1
   25b04:	14000515 	stw	r16,20(r2)
   25b08:	11000415 	stw	r4,16(r2)
   25b0c:	dfc00117 	ldw	ra,4(sp)
   25b10:	dc000017 	ldw	r16,0(sp)
   25b14:	dec00204 	addi	sp,sp,8
   25b18:	f800283a 	ret

00025b1c <__multiply>:
   25b1c:	defff104 	addi	sp,sp,-60
   25b20:	dd800b15 	stw	r22,44(sp)
   25b24:	dc400615 	stw	r17,24(sp)
   25b28:	2d800417 	ldw	r22,16(r5)
   25b2c:	34400417 	ldw	r17,16(r6)
   25b30:	ddc00c15 	stw	r23,48(sp)
   25b34:	dc800715 	stw	r18,28(sp)
   25b38:	dfc00e15 	stw	ra,56(sp)
   25b3c:	df000d15 	stw	fp,52(sp)
   25b40:	dd400a15 	stw	r21,40(sp)
   25b44:	dd000915 	stw	r20,36(sp)
   25b48:	dcc00815 	stw	r19,32(sp)
   25b4c:	dc000515 	stw	r16,20(sp)
   25b50:	2825883a 	mov	r18,r5
   25b54:	302f883a 	mov	r23,r6
   25b58:	b4400516 	blt	r22,r17,25b70 <__multiply+0x54>
   25b5c:	8807883a 	mov	r3,r17
   25b60:	282f883a 	mov	r23,r5
   25b64:	b023883a 	mov	r17,r22
   25b68:	3025883a 	mov	r18,r6
   25b6c:	182d883a 	mov	r22,r3
   25b70:	b8800217 	ldw	r2,8(r23)
   25b74:	8da9883a 	add	r20,r17,r22
   25b78:	b9400117 	ldw	r5,4(r23)
   25b7c:	1500010e 	bge	r2,r20,25b84 <__multiply+0x68>
   25b80:	29400044 	addi	r5,r5,1
   25b84:	a02690ba 	slli	r19,r20,2
   25b88:	00256c00 	call	256c0 <_Balloc>
   25b8c:	10c00504 	addi	r3,r2,20
   25b90:	1cc9883a 	add	r4,r3,r19
   25b94:	d8800415 	stw	r2,16(sp)
   25b98:	d8c00015 	stw	r3,0(sp)
   25b9c:	d9000115 	stw	r4,4(sp)
   25ba0:	1805883a 	mov	r2,r3
   25ba4:	1900042e 	bgeu	r3,r4,25bb8 <__multiply+0x9c>
   25ba8:	d8c00117 	ldw	r3,4(sp)
   25bac:	10000015 	stw	zero,0(r2)
   25bb0:	10800104 	addi	r2,r2,4
   25bb4:	10fffc36 	bltu	r2,r3,25ba8 <__multiply+0x8c>
   25bb8:	b02c90ba 	slli	r22,r22,2
   25bbc:	882290ba 	slli	r17,r17,2
   25bc0:	94800504 	addi	r18,r18,20
   25bc4:	b8800504 	addi	r2,r23,20
   25bc8:	9587883a 	add	r3,r18,r22
   25bcc:	d8800315 	stw	r2,12(sp)
   25bd0:	d8c00215 	stw	r3,8(sp)
   25bd4:	1463883a 	add	r17,r2,r17
   25bd8:	90c00936 	bltu	r18,r3,25c00 <__multiply+0xe4>
   25bdc:	00004606 	br	25cf8 <__multiply+0x1dc>
   25be0:	8020d43a 	srli	r16,r16,16
   25be4:	8000271e 	bne	r16,zero,25c84 <__multiply+0x168>
   25be8:	d8800017 	ldw	r2,0(sp)
   25bec:	94800104 	addi	r18,r18,4
   25bf0:	10800104 	addi	r2,r2,4
   25bf4:	d8800015 	stw	r2,0(sp)
   25bf8:	d8800217 	ldw	r2,8(sp)
   25bfc:	90803e2e 	bgeu	r18,r2,25cf8 <__multiply+0x1dc>
   25c00:	94000017 	ldw	r16,0(r18)
   25c04:	873fffcc 	andi	fp,r16,65535
   25c08:	e03ff526 	beq	fp,zero,25be0 <__multiply+0xc4>
   25c0c:	dcc00017 	ldw	r19,0(sp)
   25c10:	dd800317 	ldw	r22,12(sp)
   25c14:	002b883a 	mov	r21,zero
   25c18:	b5c00017 	ldw	r23,0(r22)
   25c1c:	9c000017 	ldw	r16,0(r19)
   25c20:	e00b883a 	mov	r5,fp
   25c24:	b93fffcc 	andi	r4,r23,65535
   25c28:	00201400 	call	20140 <__mulsi3>
   25c2c:	b808d43a 	srli	r4,r23,16
   25c30:	80ffffcc 	andi	r3,r16,65535
   25c34:	10c5883a 	add	r2,r2,r3
   25c38:	e00b883a 	mov	r5,fp
   25c3c:	156b883a 	add	r21,r2,r21
   25c40:	8020d43a 	srli	r16,r16,16
   25c44:	00201400 	call	20140 <__mulsi3>
   25c48:	a808d43a 	srli	r4,r21,16
   25c4c:	1405883a 	add	r2,r2,r16
   25c50:	a8ffffcc 	andi	r3,r21,65535
   25c54:	1105883a 	add	r2,r2,r4
   25c58:	1008943a 	slli	r4,r2,16
   25c5c:	9cc00104 	addi	r19,r19,4
   25c60:	b5800104 	addi	r22,r22,4
   25c64:	20c6b03a 	or	r3,r4,r3
   25c68:	98ffff15 	stw	r3,-4(r19)
   25c6c:	102ad43a 	srli	r21,r2,16
   25c70:	b47fe936 	bltu	r22,r17,25c18 <__multiply+0xfc>
   25c74:	9d400015 	stw	r21,0(r19)
   25c78:	94000017 	ldw	r16,0(r18)
   25c7c:	8020d43a 	srli	r16,r16,16
   25c80:	803fd926 	beq	r16,zero,25be8 <__multiply+0xcc>
   25c84:	ddc00017 	ldw	r23,0(sp)
   25c88:	dd400317 	ldw	r21,12(sp)
   25c8c:	0027883a 	mov	r19,zero
   25c90:	bd800017 	ldw	r22,0(r23)
   25c94:	b039883a 	mov	fp,r22
   25c98:	a900000b 	ldhu	r4,0(r21)
   25c9c:	e038d43a 	srli	fp,fp,16
   25ca0:	800b883a 	mov	r5,r16
   25ca4:	00201400 	call	20140 <__mulsi3>
   25ca8:	1739883a 	add	fp,r2,fp
   25cac:	e4e7883a 	add	r19,fp,r19
   25cb0:	9804943a 	slli	r2,r19,16
   25cb4:	b0ffffcc 	andi	r3,r22,65535
   25cb8:	bdc00104 	addi	r23,r23,4
   25cbc:	10c6b03a 	or	r3,r2,r3
   25cc0:	b8ffff15 	stw	r3,-4(r23)
   25cc4:	ad400104 	addi	r21,r21,4
   25cc8:	a93fff8b 	ldhu	r4,-2(r21)
   25ccc:	bf000017 	ldw	fp,0(r23)
   25cd0:	800b883a 	mov	r5,r16
   25cd4:	00201400 	call	20140 <__mulsi3>
   25cd8:	980cd43a 	srli	r6,r19,16
   25cdc:	e0ffffcc 	andi	r3,fp,65535
   25ce0:	10c7883a 	add	r3,r2,r3
   25ce4:	19ad883a 	add	r22,r3,r6
   25ce8:	b026d43a 	srli	r19,r22,16
   25cec:	ac7fea36 	bltu	r21,r17,25c98 <__multiply+0x17c>
   25cf0:	bd800015 	stw	r22,0(r23)
   25cf4:	003fbc06 	br	25be8 <__multiply+0xcc>
   25cf8:	05000a0e 	bge	zero,r20,25d24 <__multiply+0x208>
   25cfc:	d8c00117 	ldw	r3,4(sp)
   25d00:	18bfff17 	ldw	r2,-4(r3)
   25d04:	1cffff04 	addi	r19,r3,-4
   25d08:	10000326 	beq	r2,zero,25d18 <__multiply+0x1fc>
   25d0c:	00000506 	br	25d24 <__multiply+0x208>
   25d10:	98800017 	ldw	r2,0(r19)
   25d14:	1000031e 	bne	r2,zero,25d24 <__multiply+0x208>
   25d18:	a53fffc4 	addi	r20,r20,-1
   25d1c:	9cffff04 	addi	r19,r19,-4
   25d20:	a03ffb1e 	bne	r20,zero,25d10 <__multiply+0x1f4>
   25d24:	d8800417 	ldw	r2,16(sp)
   25d28:	15000415 	stw	r20,16(r2)
   25d2c:	dfc00e17 	ldw	ra,56(sp)
   25d30:	df000d17 	ldw	fp,52(sp)
   25d34:	ddc00c17 	ldw	r23,48(sp)
   25d38:	dd800b17 	ldw	r22,44(sp)
   25d3c:	dd400a17 	ldw	r21,40(sp)
   25d40:	dd000917 	ldw	r20,36(sp)
   25d44:	dcc00817 	ldw	r19,32(sp)
   25d48:	dc800717 	ldw	r18,28(sp)
   25d4c:	dc400617 	ldw	r17,24(sp)
   25d50:	dc000517 	ldw	r16,20(sp)
   25d54:	dec00f04 	addi	sp,sp,60
   25d58:	f800283a 	ret

00025d5c <__pow5mult>:
